
obj/kern/kernel:     file format elf64-x86-64


Disassembly of section .bootstrap:

0000000000100000 <_head64>:
// VMCALL to the VMM to get a multiboot map.
    movl $VMX_VMCALL_MBMAP, %eax
    vmcall
#endif
	
    movl $multiboot_info, %eax
  100000:	b8 00 70 10 00       	mov    $0x107000,%eax
    movl %ebx, (%eax)
  100005:	89 18                	mov    %ebx,(%rax)

#ifndef VMM_GUEST
    movw $0x1234,0x472			# warm boot
  100007:	66 c7 05 72 04 00 00 	movw   $0x1234,0x472(%rip)        # 100482 <verify_cpu_no_longmode+0x36f>
  10000e:	34 12 
#endif
	
# Reset the stack pointer in case we didn't come from the loader
    movl $0x7c00,%esp
  100010:	bc 00 7c 00 00       	mov    $0x7c00,%esp

    call verify_cpu   #check if CPU supports long mode
  100015:	e8 cc 00 00 00       	callq  1000e6 <verify_cpu>
#ifndef VMM_GUEST
    movl $CR4_PAE,%eax
  10001a:	b8 20 00 00 00       	mov    $0x20,%eax
#else
    movl $(CR4_PAE|CR4_VMXE),%eax
#endif
    movl %eax,%cr4
  10001f:	0f 22 e0             	mov    %rax,%cr4

# build an early boot pml4 at physical address pml4phys 

    #initializing the page tables
    movl $pml4,%edi
  100022:	bf 00 20 10 00       	mov    $0x102000,%edi
    xorl %eax,%eax
  100027:	31 c0                	xor    %eax,%eax
    movl $((4096/4)*5),%ecx  # moving these many words to the 6 pages with 4 second level pages + 1 3rd level + 1 4th level pages 
  100029:	b9 00 14 00 00       	mov    $0x1400,%ecx
    rep stosl
  10002e:	f3 ab                	rep stos %eax,%es:(%rdi)
    # creating a 4G boot page table
    # setting the 4th level page table only the second entry needed (PML4)
    movl $pml4,%eax
  100030:	b8 00 20 10 00       	mov    $0x102000,%eax
    movl $pdpt1, %ebx
  100035:	bb 00 30 10 00       	mov    $0x103000,%ebx
    orl $PTE_P,%ebx
  10003a:	83 cb 01             	or     $0x1,%ebx
    orl $PTE_W,%ebx
  10003d:	83 cb 02             	or     $0x2,%ebx
    movl %ebx,(%eax)
  100040:	89 18                	mov    %ebx,(%rax)

    movl $pdpt2, %ebx
  100042:	bb 00 40 10 00       	mov    $0x104000,%ebx
    orl $PTE_P,%ebx
  100047:	83 cb 01             	or     $0x1,%ebx
    orl $PTE_W,%ebx
  10004a:	83 cb 02             	or     $0x2,%ebx
    movl %ebx,0x8(%eax)
  10004d:	89 58 08             	mov    %ebx,0x8(%rax)

    # setting the 3rd level page table (PDPE)
    # 4 entries (counter in ecx), point to the next four physical pages (pgdirs)
    # pgdirs in 0xa0000--0xd000
    movl $pdpt1,%edi
  100050:	bf 00 30 10 00       	mov    $0x103000,%edi
    movl $pde1,%ebx
  100055:	bb 00 50 10 00       	mov    $0x105000,%ebx
    orl $PTE_P,%ebx
  10005a:	83 cb 01             	or     $0x1,%ebx
    orl $PTE_W,%ebx
  10005d:	83 cb 02             	or     $0x2,%ebx
    movl %ebx,(%edi)
  100060:	89 1f                	mov    %ebx,(%rdi)

    movl $pdpt2,%edi
  100062:	bf 00 40 10 00       	mov    $0x104000,%edi
    movl $pde2,%ebx
  100067:	bb 00 60 10 00       	mov    $0x106000,%ebx
    orl $PTE_P,%ebx
  10006c:	83 cb 01             	or     $0x1,%ebx
    orl $PTE_W,%ebx
  10006f:	83 cb 02             	or     $0x2,%ebx
    movl %ebx,(%edi)
  100072:	89 1f                	mov    %ebx,(%rdi)
    
    # setting the pgdir so that the LA=PA
    # mapping first 1G of mem at KERNBASE
    movl $128,%ecx
  100074:	b9 80 00 00 00       	mov    $0x80,%ecx
    # Start at the end and work backwards
    #leal (pml4 + 5*0x1000 - 0x8),%edi
    movl $pde1,%edi
  100079:	bf 00 50 10 00       	mov    $0x105000,%edi
    movl $pde2,%ebx
  10007e:	bb 00 60 10 00       	mov    $0x106000,%ebx
    #64th entry - 0x8004000000
    addl $256,%ebx 
  100083:	81 c3 00 01 00 00    	add    $0x100,%ebx
    # PTE_P|PTE_W|PTE_MBZ
    movl $0x00000183,%eax
  100089:	b8 83 01 00 00       	mov    $0x183,%eax
  1:
     movl %eax,(%edi)
  10008e:	89 07                	mov    %eax,(%rdi)
     movl %eax,(%ebx)
  100090:	89 03                	mov    %eax,(%rbx)
     addl $0x8,%edi
  100092:	83 c7 08             	add    $0x8,%edi
     addl $0x8,%ebx
  100095:	83 c3 08             	add    $0x8,%ebx
     addl $0x00200000,%eax
  100098:	05 00 00 20 00       	add    $0x200000,%eax
     subl $1,%ecx
  10009d:	83 e9 01             	sub    $0x1,%ecx
     cmp $0x0,%ecx
  1000a0:	83 f9 00             	cmp    $0x0,%ecx
     jne 1b
  1000a3:	75 e9                	jne    10008e <_head64+0x8e>
 /*    subl $1,%ecx */
 /*    cmp $0x0,%ecx */
 /*    jne 1b */

    # set the cr3 register
    movl $pml4,%eax
  1000a5:	b8 00 20 10 00       	mov    $0x102000,%eax
    movl %eax, %cr3
  1000aa:	0f 22 d8             	mov    %rax,%cr3

	
    # enable the long mode in MSR
    movl $EFER_MSR,%ecx
  1000ad:	b9 80 00 00 c0       	mov    $0xc0000080,%ecx
    rdmsr
  1000b2:	0f 32                	rdmsr  
    btsl $EFER_LME,%eax
  1000b4:	0f ba e8 08          	bts    $0x8,%eax
    wrmsr
  1000b8:	0f 30                	wrmsr  
    
    # enable paging 
    movl %cr0,%eax
  1000ba:	0f 20 c0             	mov    %cr0,%rax
    orl $CR0_PE,%eax
  1000bd:	83 c8 01             	or     $0x1,%eax
    orl $CR0_PG,%eax
  1000c0:	0d 00 00 00 80       	or     $0x80000000,%eax
    orl $CR0_AM,%eax
  1000c5:	0d 00 00 04 00       	or     $0x40000,%eax
    orl $CR0_WP,%eax
  1000ca:	0d 00 00 01 00       	or     $0x10000,%eax
    orl $CR0_MP,%eax
  1000cf:	83 c8 02             	or     $0x2,%eax
    movl %eax,%cr0
  1000d2:	0f 22 c0             	mov    %rax,%cr0
    #jump to long mode with CS=0 and

    movl $gdtdesc_64,%eax
  1000d5:	b8 18 10 10 00       	mov    $0x101018,%eax
    lgdt (%eax)
  1000da:	0f 01 10             	lgdt   (%rax)
    pushl $0x8
  1000dd:	6a 08                	pushq  $0x8
    movl $_start,%eax
  1000df:	b8 0c 00 20 00       	mov    $0x20000c,%eax
    pushl %eax
  1000e4:	50                   	push   %rax

00000000001000e5 <jumpto_longmode>:
    
    .globl jumpto_longmode
    .type jumpto_longmode,@function
jumpto_longmode:
    lret
  1000e5:	cb                   	lret   

00000000001000e6 <verify_cpu>:
/*     movabs $_back_from_head64, %rax */
/*     pushq %rax */
/*     lretq */

verify_cpu:
    pushfl                   # get eflags in eax -- standardard way to check for cpuid
  1000e6:	9c                   	pushfq 
    popl %eax
  1000e7:	58                   	pop    %rax
    movl %eax,%ecx
  1000e8:	89 c1                	mov    %eax,%ecx
    xorl $0x200000, %eax
  1000ea:	35 00 00 20 00       	xor    $0x200000,%eax
    pushl %eax
  1000ef:	50                   	push   %rax
    popfl
  1000f0:	9d                   	popfq  
    pushfl
  1000f1:	9c                   	pushfq 
    popl %eax
  1000f2:	58                   	pop    %rax
    cmpl %eax,%ebx
  1000f3:	39 c3                	cmp    %eax,%ebx
    jz verify_cpu_no_longmode   # no cpuid -- no long mode
  1000f5:	74 1c                	je     100113 <verify_cpu_no_longmode>

    movl $0x0,%eax              # see if cpuid 1 is implemented
  1000f7:	b8 00 00 00 00       	mov    $0x0,%eax
    cpuid
  1000fc:	0f a2                	cpuid  
    cmpl $0x1,%eax
  1000fe:	83 f8 01             	cmp    $0x1,%eax
    jb verify_cpu_no_longmode    # cpuid 1 is not implemented
  100101:	72 10                	jb     100113 <verify_cpu_no_longmode>


    mov $0x80000001, %eax
  100103:	b8 01 00 00 80       	mov    $0x80000001,%eax
    cpuid                 
  100108:	0f a2                	cpuid  
    test $(1 << 29),%edx                 #Test if the LM-bit, is set or not.
  10010a:	f7 c2 00 00 00 20    	test   $0x20000000,%edx
    jz verify_cpu_no_longmode
  100110:	74 01                	je     100113 <verify_cpu_no_longmode>

    ret
  100112:	c3                   	retq   

0000000000100113 <verify_cpu_no_longmode>:

verify_cpu_no_longmode:
    jmp verify_cpu_no_longmode
  100113:	eb fe                	jmp    100113 <verify_cpu_no_longmode>
  100115:	66 2e 0f 1f 84 00 00 	nopw   %cs:0x0(%rax,%rax,1)
  10011c:	00 00 00 
  10011f:	66 2e 0f 1f 84 00 00 	nopw   %cs:0x0(%rax,%rax,1)
  100126:	00 00 00 
  100129:	66 2e 0f 1f 84 00 00 	nopw   %cs:0x0(%rax,%rax,1)
  100130:	00 00 00 
  100133:	66 2e 0f 1f 84 00 00 	nopw   %cs:0x0(%rax,%rax,1)
  10013a:	00 00 00 
  10013d:	66 2e 0f 1f 84 00 00 	nopw   %cs:0x0(%rax,%rax,1)
  100144:	00 00 00 
  100147:	66 2e 0f 1f 84 00 00 	nopw   %cs:0x0(%rax,%rax,1)
  10014e:	00 00 00 
  100151:	66 2e 0f 1f 84 00 00 	nopw   %cs:0x0(%rax,%rax,1)
  100158:	00 00 00 
  10015b:	66 2e 0f 1f 84 00 00 	nopw   %cs:0x0(%rax,%rax,1)
  100162:	00 00 00 
  100165:	66 2e 0f 1f 84 00 00 	nopw   %cs:0x0(%rax,%rax,1)
  10016c:	00 00 00 
  10016f:	66 2e 0f 1f 84 00 00 	nopw   %cs:0x0(%rax,%rax,1)
  100176:	00 00 00 
  100179:	66 2e 0f 1f 84 00 00 	nopw   %cs:0x0(%rax,%rax,1)
  100180:	00 00 00 
  100183:	66 2e 0f 1f 84 00 00 	nopw   %cs:0x0(%rax,%rax,1)
  10018a:	00 00 00 
  10018d:	66 2e 0f 1f 84 00 00 	nopw   %cs:0x0(%rax,%rax,1)
  100194:	00 00 00 
  100197:	66 2e 0f 1f 84 00 00 	nopw   %cs:0x0(%rax,%rax,1)
  10019e:	00 00 00 
  1001a1:	66 2e 0f 1f 84 00 00 	nopw   %cs:0x0(%rax,%rax,1)
  1001a8:	00 00 00 
  1001ab:	66 2e 0f 1f 84 00 00 	nopw   %cs:0x0(%rax,%rax,1)
  1001b2:	00 00 00 
  1001b5:	66 2e 0f 1f 84 00 00 	nopw   %cs:0x0(%rax,%rax,1)
  1001bc:	00 00 00 
  1001bf:	66 2e 0f 1f 84 00 00 	nopw   %cs:0x0(%rax,%rax,1)
  1001c6:	00 00 00 
  1001c9:	66 2e 0f 1f 84 00 00 	nopw   %cs:0x0(%rax,%rax,1)
  1001d0:	00 00 00 
  1001d3:	66 2e 0f 1f 84 00 00 	nopw   %cs:0x0(%rax,%rax,1)
  1001da:	00 00 00 
  1001dd:	66 2e 0f 1f 84 00 00 	nopw   %cs:0x0(%rax,%rax,1)
  1001e4:	00 00 00 
  1001e7:	66 2e 0f 1f 84 00 00 	nopw   %cs:0x0(%rax,%rax,1)
  1001ee:	00 00 00 
  1001f1:	66 2e 0f 1f 84 00 00 	nopw   %cs:0x0(%rax,%rax,1)
  1001f8:	00 00 00 
  1001fb:	66 2e 0f 1f 84 00 00 	nopw   %cs:0x0(%rax,%rax,1)
  100202:	00 00 00 
  100205:	66 2e 0f 1f 84 00 00 	nopw   %cs:0x0(%rax,%rax,1)
  10020c:	00 00 00 
  10020f:	66 2e 0f 1f 84 00 00 	nopw   %cs:0x0(%rax,%rax,1)
  100216:	00 00 00 
  100219:	66 2e 0f 1f 84 00 00 	nopw   %cs:0x0(%rax,%rax,1)
  100220:	00 00 00 
  100223:	66 2e 0f 1f 84 00 00 	nopw   %cs:0x0(%rax,%rax,1)
  10022a:	00 00 00 
  10022d:	66 2e 0f 1f 84 00 00 	nopw   %cs:0x0(%rax,%rax,1)
  100234:	00 00 00 
  100237:	66 2e 0f 1f 84 00 00 	nopw   %cs:0x0(%rax,%rax,1)
  10023e:	00 00 00 
  100241:	66 2e 0f 1f 84 00 00 	nopw   %cs:0x0(%rax,%rax,1)
  100248:	00 00 00 
  10024b:	66 2e 0f 1f 84 00 00 	nopw   %cs:0x0(%rax,%rax,1)
  100252:	00 00 00 
  100255:	66 2e 0f 1f 84 00 00 	nopw   %cs:0x0(%rax,%rax,1)
  10025c:	00 00 00 
  10025f:	66 2e 0f 1f 84 00 00 	nopw   %cs:0x0(%rax,%rax,1)
  100266:	00 00 00 
  100269:	66 2e 0f 1f 84 00 00 	nopw   %cs:0x0(%rax,%rax,1)
  100270:	00 00 00 
  100273:	66 2e 0f 1f 84 00 00 	nopw   %cs:0x0(%rax,%rax,1)
  10027a:	00 00 00 
  10027d:	66 2e 0f 1f 84 00 00 	nopw   %cs:0x0(%rax,%rax,1)
  100284:	00 00 00 
  100287:	66 2e 0f 1f 84 00 00 	nopw   %cs:0x0(%rax,%rax,1)
  10028e:	00 00 00 
  100291:	66 2e 0f 1f 84 00 00 	nopw   %cs:0x0(%rax,%rax,1)
  100298:	00 00 00 
  10029b:	66 2e 0f 1f 84 00 00 	nopw   %cs:0x0(%rax,%rax,1)
  1002a2:	00 00 00 
  1002a5:	66 2e 0f 1f 84 00 00 	nopw   %cs:0x0(%rax,%rax,1)
  1002ac:	00 00 00 
  1002af:	66 2e 0f 1f 84 00 00 	nopw   %cs:0x0(%rax,%rax,1)
  1002b6:	00 00 00 
  1002b9:	66 2e 0f 1f 84 00 00 	nopw   %cs:0x0(%rax,%rax,1)
  1002c0:	00 00 00 
  1002c3:	66 2e 0f 1f 84 00 00 	nopw   %cs:0x0(%rax,%rax,1)
  1002ca:	00 00 00 
  1002cd:	66 2e 0f 1f 84 00 00 	nopw   %cs:0x0(%rax,%rax,1)
  1002d4:	00 00 00 
  1002d7:	66 2e 0f 1f 84 00 00 	nopw   %cs:0x0(%rax,%rax,1)
  1002de:	00 00 00 
  1002e1:	66 2e 0f 1f 84 00 00 	nopw   %cs:0x0(%rax,%rax,1)
  1002e8:	00 00 00 
  1002eb:	66 2e 0f 1f 84 00 00 	nopw   %cs:0x0(%rax,%rax,1)
  1002f2:	00 00 00 
  1002f5:	66 2e 0f 1f 84 00 00 	nopw   %cs:0x0(%rax,%rax,1)
  1002fc:	00 00 00 
  1002ff:	66 2e 0f 1f 84 00 00 	nopw   %cs:0x0(%rax,%rax,1)
  100306:	00 00 00 
  100309:	66 2e 0f 1f 84 00 00 	nopw   %cs:0x0(%rax,%rax,1)
  100310:	00 00 00 
  100313:	66 2e 0f 1f 84 00 00 	nopw   %cs:0x0(%rax,%rax,1)
  10031a:	00 00 00 
  10031d:	66 2e 0f 1f 84 00 00 	nopw   %cs:0x0(%rax,%rax,1)
  100324:	00 00 00 
  100327:	66 2e 0f 1f 84 00 00 	nopw   %cs:0x0(%rax,%rax,1)
  10032e:	00 00 00 
  100331:	66 2e 0f 1f 84 00 00 	nopw   %cs:0x0(%rax,%rax,1)
  100338:	00 00 00 
  10033b:	66 2e 0f 1f 84 00 00 	nopw   %cs:0x0(%rax,%rax,1)
  100342:	00 00 00 
  100345:	66 2e 0f 1f 84 00 00 	nopw   %cs:0x0(%rax,%rax,1)
  10034c:	00 00 00 
  10034f:	66 2e 0f 1f 84 00 00 	nopw   %cs:0x0(%rax,%rax,1)
  100356:	00 00 00 
  100359:	66 2e 0f 1f 84 00 00 	nopw   %cs:0x0(%rax,%rax,1)
  100360:	00 00 00 
  100363:	66 2e 0f 1f 84 00 00 	nopw   %cs:0x0(%rax,%rax,1)
  10036a:	00 00 00 
  10036d:	66 2e 0f 1f 84 00 00 	nopw   %cs:0x0(%rax,%rax,1)
  100374:	00 00 00 
  100377:	66 2e 0f 1f 84 00 00 	nopw   %cs:0x0(%rax,%rax,1)
  10037e:	00 00 00 
  100381:	66 2e 0f 1f 84 00 00 	nopw   %cs:0x0(%rax,%rax,1)
  100388:	00 00 00 
  10038b:	66 2e 0f 1f 84 00 00 	nopw   %cs:0x0(%rax,%rax,1)
  100392:	00 00 00 
  100395:	66 2e 0f 1f 84 00 00 	nopw   %cs:0x0(%rax,%rax,1)
  10039c:	00 00 00 
  10039f:	66 2e 0f 1f 84 00 00 	nopw   %cs:0x0(%rax,%rax,1)
  1003a6:	00 00 00 
  1003a9:	66 2e 0f 1f 84 00 00 	nopw   %cs:0x0(%rax,%rax,1)
  1003b0:	00 00 00 
  1003b3:	66 2e 0f 1f 84 00 00 	nopw   %cs:0x0(%rax,%rax,1)
  1003ba:	00 00 00 
  1003bd:	66 2e 0f 1f 84 00 00 	nopw   %cs:0x0(%rax,%rax,1)
  1003c4:	00 00 00 
  1003c7:	66 2e 0f 1f 84 00 00 	nopw   %cs:0x0(%rax,%rax,1)
  1003ce:	00 00 00 
  1003d1:	66 2e 0f 1f 84 00 00 	nopw   %cs:0x0(%rax,%rax,1)
  1003d8:	00 00 00 
  1003db:	66 2e 0f 1f 84 00 00 	nopw   %cs:0x0(%rax,%rax,1)
  1003e2:	00 00 00 
  1003e5:	66 2e 0f 1f 84 00 00 	nopw   %cs:0x0(%rax,%rax,1)
  1003ec:	00 00 00 
  1003ef:	66 2e 0f 1f 84 00 00 	nopw   %cs:0x0(%rax,%rax,1)
  1003f6:	00 00 00 
  1003f9:	66 2e 0f 1f 84 00 00 	nopw   %cs:0x0(%rax,%rax,1)
  100400:	00 00 00 
  100403:	66 2e 0f 1f 84 00 00 	nopw   %cs:0x0(%rax,%rax,1)
  10040a:	00 00 00 
  10040d:	66 2e 0f 1f 84 00 00 	nopw   %cs:0x0(%rax,%rax,1)
  100414:	00 00 00 
  100417:	66 2e 0f 1f 84 00 00 	nopw   %cs:0x0(%rax,%rax,1)
  10041e:	00 00 00 
  100421:	66 2e 0f 1f 84 00 00 	nopw   %cs:0x0(%rax,%rax,1)
  100428:	00 00 00 
  10042b:	66 2e 0f 1f 84 00 00 	nopw   %cs:0x0(%rax,%rax,1)
  100432:	00 00 00 
  100435:	66 2e 0f 1f 84 00 00 	nopw   %cs:0x0(%rax,%rax,1)
  10043c:	00 00 00 
  10043f:	66 2e 0f 1f 84 00 00 	nopw   %cs:0x0(%rax,%rax,1)
  100446:	00 00 00 
  100449:	66 2e 0f 1f 84 00 00 	nopw   %cs:0x0(%rax,%rax,1)
  100450:	00 00 00 
  100453:	66 2e 0f 1f 84 00 00 	nopw   %cs:0x0(%rax,%rax,1)
  10045a:	00 00 00 
  10045d:	66 2e 0f 1f 84 00 00 	nopw   %cs:0x0(%rax,%rax,1)
  100464:	00 00 00 
  100467:	66 2e 0f 1f 84 00 00 	nopw   %cs:0x0(%rax,%rax,1)
  10046e:	00 00 00 
  100471:	66 2e 0f 1f 84 00 00 	nopw   %cs:0x0(%rax,%rax,1)
  100478:	00 00 00 
  10047b:	66 2e 0f 1f 84 00 00 	nopw   %cs:0x0(%rax,%rax,1)
  100482:	00 00 00 
  100485:	66 2e 0f 1f 84 00 00 	nopw   %cs:0x0(%rax,%rax,1)
  10048c:	00 00 00 
  10048f:	66 2e 0f 1f 84 00 00 	nopw   %cs:0x0(%rax,%rax,1)
  100496:	00 00 00 
  100499:	66 2e 0f 1f 84 00 00 	nopw   %cs:0x0(%rax,%rax,1)
  1004a0:	00 00 00 
  1004a3:	66 2e 0f 1f 84 00 00 	nopw   %cs:0x0(%rax,%rax,1)
  1004aa:	00 00 00 
  1004ad:	66 2e 0f 1f 84 00 00 	nopw   %cs:0x0(%rax,%rax,1)
  1004b4:	00 00 00 
  1004b7:	66 2e 0f 1f 84 00 00 	nopw   %cs:0x0(%rax,%rax,1)
  1004be:	00 00 00 
  1004c1:	66 2e 0f 1f 84 00 00 	nopw   %cs:0x0(%rax,%rax,1)
  1004c8:	00 00 00 
  1004cb:	66 2e 0f 1f 84 00 00 	nopw   %cs:0x0(%rax,%rax,1)
  1004d2:	00 00 00 
  1004d5:	66 2e 0f 1f 84 00 00 	nopw   %cs:0x0(%rax,%rax,1)
  1004dc:	00 00 00 
  1004df:	66 2e 0f 1f 84 00 00 	nopw   %cs:0x0(%rax,%rax,1)
  1004e6:	00 00 00 
  1004e9:	66 2e 0f 1f 84 00 00 	nopw   %cs:0x0(%rax,%rax,1)
  1004f0:	00 00 00 
  1004f3:	66 2e 0f 1f 84 00 00 	nopw   %cs:0x0(%rax,%rax,1)
  1004fa:	00 00 00 
  1004fd:	66 2e 0f 1f 84 00 00 	nopw   %cs:0x0(%rax,%rax,1)
  100504:	00 00 00 
  100507:	66 2e 0f 1f 84 00 00 	nopw   %cs:0x0(%rax,%rax,1)
  10050e:	00 00 00 
  100511:	66 2e 0f 1f 84 00 00 	nopw   %cs:0x0(%rax,%rax,1)
  100518:	00 00 00 
  10051b:	66 2e 0f 1f 84 00 00 	nopw   %cs:0x0(%rax,%rax,1)
  100522:	00 00 00 
  100525:	66 2e 0f 1f 84 00 00 	nopw   %cs:0x0(%rax,%rax,1)
  10052c:	00 00 00 
  10052f:	66 2e 0f 1f 84 00 00 	nopw   %cs:0x0(%rax,%rax,1)
  100536:	00 00 00 
  100539:	66 2e 0f 1f 84 00 00 	nopw   %cs:0x0(%rax,%rax,1)
  100540:	00 00 00 
  100543:	66 2e 0f 1f 84 00 00 	nopw   %cs:0x0(%rax,%rax,1)
  10054a:	00 00 00 
  10054d:	66 2e 0f 1f 84 00 00 	nopw   %cs:0x0(%rax,%rax,1)
  100554:	00 00 00 
  100557:	66 2e 0f 1f 84 00 00 	nopw   %cs:0x0(%rax,%rax,1)
  10055e:	00 00 00 
  100561:	66 2e 0f 1f 84 00 00 	nopw   %cs:0x0(%rax,%rax,1)
  100568:	00 00 00 
  10056b:	66 2e 0f 1f 84 00 00 	nopw   %cs:0x0(%rax,%rax,1)
  100572:	00 00 00 
  100575:	66 2e 0f 1f 84 00 00 	nopw   %cs:0x0(%rax,%rax,1)
  10057c:	00 00 00 
  10057f:	66 2e 0f 1f 84 00 00 	nopw   %cs:0x0(%rax,%rax,1)
  100586:	00 00 00 
  100589:	66 2e 0f 1f 84 00 00 	nopw   %cs:0x0(%rax,%rax,1)
  100590:	00 00 00 
  100593:	66 2e 0f 1f 84 00 00 	nopw   %cs:0x0(%rax,%rax,1)
  10059a:	00 00 00 
  10059d:	66 2e 0f 1f 84 00 00 	nopw   %cs:0x0(%rax,%rax,1)
  1005a4:	00 00 00 
  1005a7:	66 2e 0f 1f 84 00 00 	nopw   %cs:0x0(%rax,%rax,1)
  1005ae:	00 00 00 
  1005b1:	66 2e 0f 1f 84 00 00 	nopw   %cs:0x0(%rax,%rax,1)
  1005b8:	00 00 00 
  1005bb:	66 2e 0f 1f 84 00 00 	nopw   %cs:0x0(%rax,%rax,1)
  1005c2:	00 00 00 
  1005c5:	66 2e 0f 1f 84 00 00 	nopw   %cs:0x0(%rax,%rax,1)
  1005cc:	00 00 00 
  1005cf:	66 2e 0f 1f 84 00 00 	nopw   %cs:0x0(%rax,%rax,1)
  1005d6:	00 00 00 
  1005d9:	66 2e 0f 1f 84 00 00 	nopw   %cs:0x0(%rax,%rax,1)
  1005e0:	00 00 00 
  1005e3:	66 2e 0f 1f 84 00 00 	nopw   %cs:0x0(%rax,%rax,1)
  1005ea:	00 00 00 
  1005ed:	66 2e 0f 1f 84 00 00 	nopw   %cs:0x0(%rax,%rax,1)
  1005f4:	00 00 00 
  1005f7:	66 2e 0f 1f 84 00 00 	nopw   %cs:0x0(%rax,%rax,1)
  1005fe:	00 00 00 
  100601:	66 2e 0f 1f 84 00 00 	nopw   %cs:0x0(%rax,%rax,1)
  100608:	00 00 00 
  10060b:	66 2e 0f 1f 84 00 00 	nopw   %cs:0x0(%rax,%rax,1)
  100612:	00 00 00 
  100615:	66 2e 0f 1f 84 00 00 	nopw   %cs:0x0(%rax,%rax,1)
  10061c:	00 00 00 
  10061f:	66 2e 0f 1f 84 00 00 	nopw   %cs:0x0(%rax,%rax,1)
  100626:	00 00 00 
  100629:	66 2e 0f 1f 84 00 00 	nopw   %cs:0x0(%rax,%rax,1)
  100630:	00 00 00 
  100633:	66 2e 0f 1f 84 00 00 	nopw   %cs:0x0(%rax,%rax,1)
  10063a:	00 00 00 
  10063d:	66 2e 0f 1f 84 00 00 	nopw   %cs:0x0(%rax,%rax,1)
  100644:	00 00 00 
  100647:	66 2e 0f 1f 84 00 00 	nopw   %cs:0x0(%rax,%rax,1)
  10064e:	00 00 00 
  100651:	66 2e 0f 1f 84 00 00 	nopw   %cs:0x0(%rax,%rax,1)
  100658:	00 00 00 
  10065b:	66 2e 0f 1f 84 00 00 	nopw   %cs:0x0(%rax,%rax,1)
  100662:	00 00 00 
  100665:	66 2e 0f 1f 84 00 00 	nopw   %cs:0x0(%rax,%rax,1)
  10066c:	00 00 00 
  10066f:	66 2e 0f 1f 84 00 00 	nopw   %cs:0x0(%rax,%rax,1)
  100676:	00 00 00 
  100679:	66 2e 0f 1f 84 00 00 	nopw   %cs:0x0(%rax,%rax,1)
  100680:	00 00 00 
  100683:	66 2e 0f 1f 84 00 00 	nopw   %cs:0x0(%rax,%rax,1)
  10068a:	00 00 00 
  10068d:	66 2e 0f 1f 84 00 00 	nopw   %cs:0x0(%rax,%rax,1)
  100694:	00 00 00 
  100697:	66 2e 0f 1f 84 00 00 	nopw   %cs:0x0(%rax,%rax,1)
  10069e:	00 00 00 
  1006a1:	66 2e 0f 1f 84 00 00 	nopw   %cs:0x0(%rax,%rax,1)
  1006a8:	00 00 00 
  1006ab:	66 2e 0f 1f 84 00 00 	nopw   %cs:0x0(%rax,%rax,1)
  1006b2:	00 00 00 
  1006b5:	66 2e 0f 1f 84 00 00 	nopw   %cs:0x0(%rax,%rax,1)
  1006bc:	00 00 00 
  1006bf:	66 2e 0f 1f 84 00 00 	nopw   %cs:0x0(%rax,%rax,1)
  1006c6:	00 00 00 
  1006c9:	66 2e 0f 1f 84 00 00 	nopw   %cs:0x0(%rax,%rax,1)
  1006d0:	00 00 00 
  1006d3:	66 2e 0f 1f 84 00 00 	nopw   %cs:0x0(%rax,%rax,1)
  1006da:	00 00 00 
  1006dd:	66 2e 0f 1f 84 00 00 	nopw   %cs:0x0(%rax,%rax,1)
  1006e4:	00 00 00 
  1006e7:	66 2e 0f 1f 84 00 00 	nopw   %cs:0x0(%rax,%rax,1)
  1006ee:	00 00 00 
  1006f1:	66 2e 0f 1f 84 00 00 	nopw   %cs:0x0(%rax,%rax,1)
  1006f8:	00 00 00 
  1006fb:	66 2e 0f 1f 84 00 00 	nopw   %cs:0x0(%rax,%rax,1)
  100702:	00 00 00 
  100705:	66 2e 0f 1f 84 00 00 	nopw   %cs:0x0(%rax,%rax,1)
  10070c:	00 00 00 
  10070f:	66 2e 0f 1f 84 00 00 	nopw   %cs:0x0(%rax,%rax,1)
  100716:	00 00 00 
  100719:	66 2e 0f 1f 84 00 00 	nopw   %cs:0x0(%rax,%rax,1)
  100720:	00 00 00 
  100723:	66 2e 0f 1f 84 00 00 	nopw   %cs:0x0(%rax,%rax,1)
  10072a:	00 00 00 
  10072d:	66 2e 0f 1f 84 00 00 	nopw   %cs:0x0(%rax,%rax,1)
  100734:	00 00 00 
  100737:	66 2e 0f 1f 84 00 00 	nopw   %cs:0x0(%rax,%rax,1)
  10073e:	00 00 00 
  100741:	66 2e 0f 1f 84 00 00 	nopw   %cs:0x0(%rax,%rax,1)
  100748:	00 00 00 
  10074b:	66 2e 0f 1f 84 00 00 	nopw   %cs:0x0(%rax,%rax,1)
  100752:	00 00 00 
  100755:	66 2e 0f 1f 84 00 00 	nopw   %cs:0x0(%rax,%rax,1)
  10075c:	00 00 00 
  10075f:	66 2e 0f 1f 84 00 00 	nopw   %cs:0x0(%rax,%rax,1)
  100766:	00 00 00 
  100769:	66 2e 0f 1f 84 00 00 	nopw   %cs:0x0(%rax,%rax,1)
  100770:	00 00 00 
  100773:	66 2e 0f 1f 84 00 00 	nopw   %cs:0x0(%rax,%rax,1)
  10077a:	00 00 00 
  10077d:	66 2e 0f 1f 84 00 00 	nopw   %cs:0x0(%rax,%rax,1)
  100784:	00 00 00 
  100787:	66 2e 0f 1f 84 00 00 	nopw   %cs:0x0(%rax,%rax,1)
  10078e:	00 00 00 
  100791:	66 2e 0f 1f 84 00 00 	nopw   %cs:0x0(%rax,%rax,1)
  100798:	00 00 00 
  10079b:	66 2e 0f 1f 84 00 00 	nopw   %cs:0x0(%rax,%rax,1)
  1007a2:	00 00 00 
  1007a5:	66 2e 0f 1f 84 00 00 	nopw   %cs:0x0(%rax,%rax,1)
  1007ac:	00 00 00 
  1007af:	66 2e 0f 1f 84 00 00 	nopw   %cs:0x0(%rax,%rax,1)
  1007b6:	00 00 00 
  1007b9:	66 2e 0f 1f 84 00 00 	nopw   %cs:0x0(%rax,%rax,1)
  1007c0:	00 00 00 
  1007c3:	66 2e 0f 1f 84 00 00 	nopw   %cs:0x0(%rax,%rax,1)
  1007ca:	00 00 00 
  1007cd:	66 2e 0f 1f 84 00 00 	nopw   %cs:0x0(%rax,%rax,1)
  1007d4:	00 00 00 
  1007d7:	66 2e 0f 1f 84 00 00 	nopw   %cs:0x0(%rax,%rax,1)
  1007de:	00 00 00 
  1007e1:	66 2e 0f 1f 84 00 00 	nopw   %cs:0x0(%rax,%rax,1)
  1007e8:	00 00 00 
  1007eb:	66 2e 0f 1f 84 00 00 	nopw   %cs:0x0(%rax,%rax,1)
  1007f2:	00 00 00 
  1007f5:	66 2e 0f 1f 84 00 00 	nopw   %cs:0x0(%rax,%rax,1)
  1007fc:	00 00 00 
  1007ff:	66 2e 0f 1f 84 00 00 	nopw   %cs:0x0(%rax,%rax,1)
  100806:	00 00 00 
  100809:	66 2e 0f 1f 84 00 00 	nopw   %cs:0x0(%rax,%rax,1)
  100810:	00 00 00 
  100813:	66 2e 0f 1f 84 00 00 	nopw   %cs:0x0(%rax,%rax,1)
  10081a:	00 00 00 
  10081d:	66 2e 0f 1f 84 00 00 	nopw   %cs:0x0(%rax,%rax,1)
  100824:	00 00 00 
  100827:	66 2e 0f 1f 84 00 00 	nopw   %cs:0x0(%rax,%rax,1)
  10082e:	00 00 00 
  100831:	66 2e 0f 1f 84 00 00 	nopw   %cs:0x0(%rax,%rax,1)
  100838:	00 00 00 
  10083b:	66 2e 0f 1f 84 00 00 	nopw   %cs:0x0(%rax,%rax,1)
  100842:	00 00 00 
  100845:	66 2e 0f 1f 84 00 00 	nopw   %cs:0x0(%rax,%rax,1)
  10084c:	00 00 00 
  10084f:	66 2e 0f 1f 84 00 00 	nopw   %cs:0x0(%rax,%rax,1)
  100856:	00 00 00 
  100859:	66 2e 0f 1f 84 00 00 	nopw   %cs:0x0(%rax,%rax,1)
  100860:	00 00 00 
  100863:	66 2e 0f 1f 84 00 00 	nopw   %cs:0x0(%rax,%rax,1)
  10086a:	00 00 00 
  10086d:	66 2e 0f 1f 84 00 00 	nopw   %cs:0x0(%rax,%rax,1)
  100874:	00 00 00 
  100877:	66 2e 0f 1f 84 00 00 	nopw   %cs:0x0(%rax,%rax,1)
  10087e:	00 00 00 
  100881:	66 2e 0f 1f 84 00 00 	nopw   %cs:0x0(%rax,%rax,1)
  100888:	00 00 00 
  10088b:	66 2e 0f 1f 84 00 00 	nopw   %cs:0x0(%rax,%rax,1)
  100892:	00 00 00 
  100895:	66 2e 0f 1f 84 00 00 	nopw   %cs:0x0(%rax,%rax,1)
  10089c:	00 00 00 
  10089f:	66 2e 0f 1f 84 00 00 	nopw   %cs:0x0(%rax,%rax,1)
  1008a6:	00 00 00 
  1008a9:	66 2e 0f 1f 84 00 00 	nopw   %cs:0x0(%rax,%rax,1)
  1008b0:	00 00 00 
  1008b3:	66 2e 0f 1f 84 00 00 	nopw   %cs:0x0(%rax,%rax,1)
  1008ba:	00 00 00 
  1008bd:	66 2e 0f 1f 84 00 00 	nopw   %cs:0x0(%rax,%rax,1)
  1008c4:	00 00 00 
  1008c7:	66 2e 0f 1f 84 00 00 	nopw   %cs:0x0(%rax,%rax,1)
  1008ce:	00 00 00 
  1008d1:	66 2e 0f 1f 84 00 00 	nopw   %cs:0x0(%rax,%rax,1)
  1008d8:	00 00 00 
  1008db:	66 2e 0f 1f 84 00 00 	nopw   %cs:0x0(%rax,%rax,1)
  1008e2:	00 00 00 
  1008e5:	66 2e 0f 1f 84 00 00 	nopw   %cs:0x0(%rax,%rax,1)
  1008ec:	00 00 00 
  1008ef:	66 2e 0f 1f 84 00 00 	nopw   %cs:0x0(%rax,%rax,1)
  1008f6:	00 00 00 
  1008f9:	66 2e 0f 1f 84 00 00 	nopw   %cs:0x0(%rax,%rax,1)
  100900:	00 00 00 
  100903:	66 2e 0f 1f 84 00 00 	nopw   %cs:0x0(%rax,%rax,1)
  10090a:	00 00 00 
  10090d:	66 2e 0f 1f 84 00 00 	nopw   %cs:0x0(%rax,%rax,1)
  100914:	00 00 00 
  100917:	66 2e 0f 1f 84 00 00 	nopw   %cs:0x0(%rax,%rax,1)
  10091e:	00 00 00 
  100921:	66 2e 0f 1f 84 00 00 	nopw   %cs:0x0(%rax,%rax,1)
  100928:	00 00 00 
  10092b:	66 2e 0f 1f 84 00 00 	nopw   %cs:0x0(%rax,%rax,1)
  100932:	00 00 00 
  100935:	66 2e 0f 1f 84 00 00 	nopw   %cs:0x0(%rax,%rax,1)
  10093c:	00 00 00 
  10093f:	66 2e 0f 1f 84 00 00 	nopw   %cs:0x0(%rax,%rax,1)
  100946:	00 00 00 
  100949:	66 2e 0f 1f 84 00 00 	nopw   %cs:0x0(%rax,%rax,1)
  100950:	00 00 00 
  100953:	66 2e 0f 1f 84 00 00 	nopw   %cs:0x0(%rax,%rax,1)
  10095a:	00 00 00 
  10095d:	66 2e 0f 1f 84 00 00 	nopw   %cs:0x0(%rax,%rax,1)
  100964:	00 00 00 
  100967:	66 2e 0f 1f 84 00 00 	nopw   %cs:0x0(%rax,%rax,1)
  10096e:	00 00 00 
  100971:	66 2e 0f 1f 84 00 00 	nopw   %cs:0x0(%rax,%rax,1)
  100978:	00 00 00 
  10097b:	66 2e 0f 1f 84 00 00 	nopw   %cs:0x0(%rax,%rax,1)
  100982:	00 00 00 
  100985:	66 2e 0f 1f 84 00 00 	nopw   %cs:0x0(%rax,%rax,1)
  10098c:	00 00 00 
  10098f:	66 2e 0f 1f 84 00 00 	nopw   %cs:0x0(%rax,%rax,1)
  100996:	00 00 00 
  100999:	66 2e 0f 1f 84 00 00 	nopw   %cs:0x0(%rax,%rax,1)
  1009a0:	00 00 00 
  1009a3:	66 2e 0f 1f 84 00 00 	nopw   %cs:0x0(%rax,%rax,1)
  1009aa:	00 00 00 
  1009ad:	66 2e 0f 1f 84 00 00 	nopw   %cs:0x0(%rax,%rax,1)
  1009b4:	00 00 00 
  1009b7:	66 2e 0f 1f 84 00 00 	nopw   %cs:0x0(%rax,%rax,1)
  1009be:	00 00 00 
  1009c1:	66 2e 0f 1f 84 00 00 	nopw   %cs:0x0(%rax,%rax,1)
  1009c8:	00 00 00 
  1009cb:	66 2e 0f 1f 84 00 00 	nopw   %cs:0x0(%rax,%rax,1)
  1009d2:	00 00 00 
  1009d5:	66 2e 0f 1f 84 00 00 	nopw   %cs:0x0(%rax,%rax,1)
  1009dc:	00 00 00 
  1009df:	66 2e 0f 1f 84 00 00 	nopw   %cs:0x0(%rax,%rax,1)
  1009e6:	00 00 00 
  1009e9:	66 2e 0f 1f 84 00 00 	nopw   %cs:0x0(%rax,%rax,1)
  1009f0:	00 00 00 
  1009f3:	66 2e 0f 1f 84 00 00 	nopw   %cs:0x0(%rax,%rax,1)
  1009fa:	00 00 00 
  1009fd:	66 2e 0f 1f 84 00 00 	nopw   %cs:0x0(%rax,%rax,1)
  100a04:	00 00 00 
  100a07:	66 2e 0f 1f 84 00 00 	nopw   %cs:0x0(%rax,%rax,1)
  100a0e:	00 00 00 
  100a11:	66 2e 0f 1f 84 00 00 	nopw   %cs:0x0(%rax,%rax,1)
  100a18:	00 00 00 
  100a1b:	66 2e 0f 1f 84 00 00 	nopw   %cs:0x0(%rax,%rax,1)
  100a22:	00 00 00 
  100a25:	66 2e 0f 1f 84 00 00 	nopw   %cs:0x0(%rax,%rax,1)
  100a2c:	00 00 00 
  100a2f:	66 2e 0f 1f 84 00 00 	nopw   %cs:0x0(%rax,%rax,1)
  100a36:	00 00 00 
  100a39:	66 2e 0f 1f 84 00 00 	nopw   %cs:0x0(%rax,%rax,1)
  100a40:	00 00 00 
  100a43:	66 2e 0f 1f 84 00 00 	nopw   %cs:0x0(%rax,%rax,1)
  100a4a:	00 00 00 
  100a4d:	66 2e 0f 1f 84 00 00 	nopw   %cs:0x0(%rax,%rax,1)
  100a54:	00 00 00 
  100a57:	66 2e 0f 1f 84 00 00 	nopw   %cs:0x0(%rax,%rax,1)
  100a5e:	00 00 00 
  100a61:	66 2e 0f 1f 84 00 00 	nopw   %cs:0x0(%rax,%rax,1)
  100a68:	00 00 00 
  100a6b:	66 2e 0f 1f 84 00 00 	nopw   %cs:0x0(%rax,%rax,1)
  100a72:	00 00 00 
  100a75:	66 2e 0f 1f 84 00 00 	nopw   %cs:0x0(%rax,%rax,1)
  100a7c:	00 00 00 
  100a7f:	66 2e 0f 1f 84 00 00 	nopw   %cs:0x0(%rax,%rax,1)
  100a86:	00 00 00 
  100a89:	66 2e 0f 1f 84 00 00 	nopw   %cs:0x0(%rax,%rax,1)
  100a90:	00 00 00 
  100a93:	66 2e 0f 1f 84 00 00 	nopw   %cs:0x0(%rax,%rax,1)
  100a9a:	00 00 00 
  100a9d:	66 2e 0f 1f 84 00 00 	nopw   %cs:0x0(%rax,%rax,1)
  100aa4:	00 00 00 
  100aa7:	66 2e 0f 1f 84 00 00 	nopw   %cs:0x0(%rax,%rax,1)
  100aae:	00 00 00 
  100ab1:	66 2e 0f 1f 84 00 00 	nopw   %cs:0x0(%rax,%rax,1)
  100ab8:	00 00 00 
  100abb:	66 2e 0f 1f 84 00 00 	nopw   %cs:0x0(%rax,%rax,1)
  100ac2:	00 00 00 
  100ac5:	66 2e 0f 1f 84 00 00 	nopw   %cs:0x0(%rax,%rax,1)
  100acc:	00 00 00 
  100acf:	66 2e 0f 1f 84 00 00 	nopw   %cs:0x0(%rax,%rax,1)
  100ad6:	00 00 00 
  100ad9:	66 2e 0f 1f 84 00 00 	nopw   %cs:0x0(%rax,%rax,1)
  100ae0:	00 00 00 
  100ae3:	66 2e 0f 1f 84 00 00 	nopw   %cs:0x0(%rax,%rax,1)
  100aea:	00 00 00 
  100aed:	66 2e 0f 1f 84 00 00 	nopw   %cs:0x0(%rax,%rax,1)
  100af4:	00 00 00 
  100af7:	66 2e 0f 1f 84 00 00 	nopw   %cs:0x0(%rax,%rax,1)
  100afe:	00 00 00 
  100b01:	66 2e 0f 1f 84 00 00 	nopw   %cs:0x0(%rax,%rax,1)
  100b08:	00 00 00 
  100b0b:	66 2e 0f 1f 84 00 00 	nopw   %cs:0x0(%rax,%rax,1)
  100b12:	00 00 00 
  100b15:	66 2e 0f 1f 84 00 00 	nopw   %cs:0x0(%rax,%rax,1)
  100b1c:	00 00 00 
  100b1f:	66 2e 0f 1f 84 00 00 	nopw   %cs:0x0(%rax,%rax,1)
  100b26:	00 00 00 
  100b29:	66 2e 0f 1f 84 00 00 	nopw   %cs:0x0(%rax,%rax,1)
  100b30:	00 00 00 
  100b33:	66 2e 0f 1f 84 00 00 	nopw   %cs:0x0(%rax,%rax,1)
  100b3a:	00 00 00 
  100b3d:	66 2e 0f 1f 84 00 00 	nopw   %cs:0x0(%rax,%rax,1)
  100b44:	00 00 00 
  100b47:	66 2e 0f 1f 84 00 00 	nopw   %cs:0x0(%rax,%rax,1)
  100b4e:	00 00 00 
  100b51:	66 2e 0f 1f 84 00 00 	nopw   %cs:0x0(%rax,%rax,1)
  100b58:	00 00 00 
  100b5b:	66 2e 0f 1f 84 00 00 	nopw   %cs:0x0(%rax,%rax,1)
  100b62:	00 00 00 
  100b65:	66 2e 0f 1f 84 00 00 	nopw   %cs:0x0(%rax,%rax,1)
  100b6c:	00 00 00 
  100b6f:	66 2e 0f 1f 84 00 00 	nopw   %cs:0x0(%rax,%rax,1)
  100b76:	00 00 00 
  100b79:	66 2e 0f 1f 84 00 00 	nopw   %cs:0x0(%rax,%rax,1)
  100b80:	00 00 00 
  100b83:	66 2e 0f 1f 84 00 00 	nopw   %cs:0x0(%rax,%rax,1)
  100b8a:	00 00 00 
  100b8d:	66 2e 0f 1f 84 00 00 	nopw   %cs:0x0(%rax,%rax,1)
  100b94:	00 00 00 
  100b97:	66 2e 0f 1f 84 00 00 	nopw   %cs:0x0(%rax,%rax,1)
  100b9e:	00 00 00 
  100ba1:	66 2e 0f 1f 84 00 00 	nopw   %cs:0x0(%rax,%rax,1)
  100ba8:	00 00 00 
  100bab:	66 2e 0f 1f 84 00 00 	nopw   %cs:0x0(%rax,%rax,1)
  100bb2:	00 00 00 
  100bb5:	66 2e 0f 1f 84 00 00 	nopw   %cs:0x0(%rax,%rax,1)
  100bbc:	00 00 00 
  100bbf:	66 2e 0f 1f 84 00 00 	nopw   %cs:0x0(%rax,%rax,1)
  100bc6:	00 00 00 
  100bc9:	66 2e 0f 1f 84 00 00 	nopw   %cs:0x0(%rax,%rax,1)
  100bd0:	00 00 00 
  100bd3:	66 2e 0f 1f 84 00 00 	nopw   %cs:0x0(%rax,%rax,1)
  100bda:	00 00 00 
  100bdd:	66 2e 0f 1f 84 00 00 	nopw   %cs:0x0(%rax,%rax,1)
  100be4:	00 00 00 
  100be7:	66 2e 0f 1f 84 00 00 	nopw   %cs:0x0(%rax,%rax,1)
  100bee:	00 00 00 
  100bf1:	66 2e 0f 1f 84 00 00 	nopw   %cs:0x0(%rax,%rax,1)
  100bf8:	00 00 00 
  100bfb:	66 2e 0f 1f 84 00 00 	nopw   %cs:0x0(%rax,%rax,1)
  100c02:	00 00 00 
  100c05:	66 2e 0f 1f 84 00 00 	nopw   %cs:0x0(%rax,%rax,1)
  100c0c:	00 00 00 
  100c0f:	66 2e 0f 1f 84 00 00 	nopw   %cs:0x0(%rax,%rax,1)
  100c16:	00 00 00 
  100c19:	66 2e 0f 1f 84 00 00 	nopw   %cs:0x0(%rax,%rax,1)
  100c20:	00 00 00 
  100c23:	66 2e 0f 1f 84 00 00 	nopw   %cs:0x0(%rax,%rax,1)
  100c2a:	00 00 00 
  100c2d:	66 2e 0f 1f 84 00 00 	nopw   %cs:0x0(%rax,%rax,1)
  100c34:	00 00 00 
  100c37:	66 2e 0f 1f 84 00 00 	nopw   %cs:0x0(%rax,%rax,1)
  100c3e:	00 00 00 
  100c41:	66 2e 0f 1f 84 00 00 	nopw   %cs:0x0(%rax,%rax,1)
  100c48:	00 00 00 
  100c4b:	66 2e 0f 1f 84 00 00 	nopw   %cs:0x0(%rax,%rax,1)
  100c52:	00 00 00 
  100c55:	66 2e 0f 1f 84 00 00 	nopw   %cs:0x0(%rax,%rax,1)
  100c5c:	00 00 00 
  100c5f:	66 2e 0f 1f 84 00 00 	nopw   %cs:0x0(%rax,%rax,1)
  100c66:	00 00 00 
  100c69:	66 2e 0f 1f 84 00 00 	nopw   %cs:0x0(%rax,%rax,1)
  100c70:	00 00 00 
  100c73:	66 2e 0f 1f 84 00 00 	nopw   %cs:0x0(%rax,%rax,1)
  100c7a:	00 00 00 
  100c7d:	66 2e 0f 1f 84 00 00 	nopw   %cs:0x0(%rax,%rax,1)
  100c84:	00 00 00 
  100c87:	66 2e 0f 1f 84 00 00 	nopw   %cs:0x0(%rax,%rax,1)
  100c8e:	00 00 00 
  100c91:	66 2e 0f 1f 84 00 00 	nopw   %cs:0x0(%rax,%rax,1)
  100c98:	00 00 00 
  100c9b:	66 2e 0f 1f 84 00 00 	nopw   %cs:0x0(%rax,%rax,1)
  100ca2:	00 00 00 
  100ca5:	66 2e 0f 1f 84 00 00 	nopw   %cs:0x0(%rax,%rax,1)
  100cac:	00 00 00 
  100caf:	66 2e 0f 1f 84 00 00 	nopw   %cs:0x0(%rax,%rax,1)
  100cb6:	00 00 00 
  100cb9:	66 2e 0f 1f 84 00 00 	nopw   %cs:0x0(%rax,%rax,1)
  100cc0:	00 00 00 
  100cc3:	66 2e 0f 1f 84 00 00 	nopw   %cs:0x0(%rax,%rax,1)
  100cca:	00 00 00 
  100ccd:	66 2e 0f 1f 84 00 00 	nopw   %cs:0x0(%rax,%rax,1)
  100cd4:	00 00 00 
  100cd7:	66 2e 0f 1f 84 00 00 	nopw   %cs:0x0(%rax,%rax,1)
  100cde:	00 00 00 
  100ce1:	66 2e 0f 1f 84 00 00 	nopw   %cs:0x0(%rax,%rax,1)
  100ce8:	00 00 00 
  100ceb:	66 2e 0f 1f 84 00 00 	nopw   %cs:0x0(%rax,%rax,1)
  100cf2:	00 00 00 
  100cf5:	66 2e 0f 1f 84 00 00 	nopw   %cs:0x0(%rax,%rax,1)
  100cfc:	00 00 00 
  100cff:	66 2e 0f 1f 84 00 00 	nopw   %cs:0x0(%rax,%rax,1)
  100d06:	00 00 00 
  100d09:	66 2e 0f 1f 84 00 00 	nopw   %cs:0x0(%rax,%rax,1)
  100d10:	00 00 00 
  100d13:	66 2e 0f 1f 84 00 00 	nopw   %cs:0x0(%rax,%rax,1)
  100d1a:	00 00 00 
  100d1d:	66 2e 0f 1f 84 00 00 	nopw   %cs:0x0(%rax,%rax,1)
  100d24:	00 00 00 
  100d27:	66 2e 0f 1f 84 00 00 	nopw   %cs:0x0(%rax,%rax,1)
  100d2e:	00 00 00 
  100d31:	66 2e 0f 1f 84 00 00 	nopw   %cs:0x0(%rax,%rax,1)
  100d38:	00 00 00 
  100d3b:	66 2e 0f 1f 84 00 00 	nopw   %cs:0x0(%rax,%rax,1)
  100d42:	00 00 00 
  100d45:	66 2e 0f 1f 84 00 00 	nopw   %cs:0x0(%rax,%rax,1)
  100d4c:	00 00 00 
  100d4f:	66 2e 0f 1f 84 00 00 	nopw   %cs:0x0(%rax,%rax,1)
  100d56:	00 00 00 
  100d59:	66 2e 0f 1f 84 00 00 	nopw   %cs:0x0(%rax,%rax,1)
  100d60:	00 00 00 
  100d63:	66 2e 0f 1f 84 00 00 	nopw   %cs:0x0(%rax,%rax,1)
  100d6a:	00 00 00 
  100d6d:	66 2e 0f 1f 84 00 00 	nopw   %cs:0x0(%rax,%rax,1)
  100d74:	00 00 00 
  100d77:	66 2e 0f 1f 84 00 00 	nopw   %cs:0x0(%rax,%rax,1)
  100d7e:	00 00 00 
  100d81:	66 2e 0f 1f 84 00 00 	nopw   %cs:0x0(%rax,%rax,1)
  100d88:	00 00 00 
  100d8b:	66 2e 0f 1f 84 00 00 	nopw   %cs:0x0(%rax,%rax,1)
  100d92:	00 00 00 
  100d95:	66 2e 0f 1f 84 00 00 	nopw   %cs:0x0(%rax,%rax,1)
  100d9c:	00 00 00 
  100d9f:	66 2e 0f 1f 84 00 00 	nopw   %cs:0x0(%rax,%rax,1)
  100da6:	00 00 00 
  100da9:	66 2e 0f 1f 84 00 00 	nopw   %cs:0x0(%rax,%rax,1)
  100db0:	00 00 00 
  100db3:	66 2e 0f 1f 84 00 00 	nopw   %cs:0x0(%rax,%rax,1)
  100dba:	00 00 00 
  100dbd:	66 2e 0f 1f 84 00 00 	nopw   %cs:0x0(%rax,%rax,1)
  100dc4:	00 00 00 
  100dc7:	66 2e 0f 1f 84 00 00 	nopw   %cs:0x0(%rax,%rax,1)
  100dce:	00 00 00 
  100dd1:	66 2e 0f 1f 84 00 00 	nopw   %cs:0x0(%rax,%rax,1)
  100dd8:	00 00 00 
  100ddb:	66 2e 0f 1f 84 00 00 	nopw   %cs:0x0(%rax,%rax,1)
  100de2:	00 00 00 
  100de5:	66 2e 0f 1f 84 00 00 	nopw   %cs:0x0(%rax,%rax,1)
  100dec:	00 00 00 
  100def:	66 2e 0f 1f 84 00 00 	nopw   %cs:0x0(%rax,%rax,1)
  100df6:	00 00 00 
  100df9:	66 2e 0f 1f 84 00 00 	nopw   %cs:0x0(%rax,%rax,1)
  100e00:	00 00 00 
  100e03:	66 2e 0f 1f 84 00 00 	nopw   %cs:0x0(%rax,%rax,1)
  100e0a:	00 00 00 
  100e0d:	66 2e 0f 1f 84 00 00 	nopw   %cs:0x0(%rax,%rax,1)
  100e14:	00 00 00 
  100e17:	66 2e 0f 1f 84 00 00 	nopw   %cs:0x0(%rax,%rax,1)
  100e1e:	00 00 00 
  100e21:	66 2e 0f 1f 84 00 00 	nopw   %cs:0x0(%rax,%rax,1)
  100e28:	00 00 00 
  100e2b:	66 2e 0f 1f 84 00 00 	nopw   %cs:0x0(%rax,%rax,1)
  100e32:	00 00 00 
  100e35:	66 2e 0f 1f 84 00 00 	nopw   %cs:0x0(%rax,%rax,1)
  100e3c:	00 00 00 
  100e3f:	66 2e 0f 1f 84 00 00 	nopw   %cs:0x0(%rax,%rax,1)
  100e46:	00 00 00 
  100e49:	66 2e 0f 1f 84 00 00 	nopw   %cs:0x0(%rax,%rax,1)
  100e50:	00 00 00 
  100e53:	66 2e 0f 1f 84 00 00 	nopw   %cs:0x0(%rax,%rax,1)
  100e5a:	00 00 00 
  100e5d:	66 2e 0f 1f 84 00 00 	nopw   %cs:0x0(%rax,%rax,1)
  100e64:	00 00 00 
  100e67:	66 2e 0f 1f 84 00 00 	nopw   %cs:0x0(%rax,%rax,1)
  100e6e:	00 00 00 
  100e71:	66 2e 0f 1f 84 00 00 	nopw   %cs:0x0(%rax,%rax,1)
  100e78:	00 00 00 
  100e7b:	66 2e 0f 1f 84 00 00 	nopw   %cs:0x0(%rax,%rax,1)
  100e82:	00 00 00 
  100e85:	66 2e 0f 1f 84 00 00 	nopw   %cs:0x0(%rax,%rax,1)
  100e8c:	00 00 00 
  100e8f:	66 2e 0f 1f 84 00 00 	nopw   %cs:0x0(%rax,%rax,1)
  100e96:	00 00 00 
  100e99:	66 2e 0f 1f 84 00 00 	nopw   %cs:0x0(%rax,%rax,1)
  100ea0:	00 00 00 
  100ea3:	66 2e 0f 1f 84 00 00 	nopw   %cs:0x0(%rax,%rax,1)
  100eaa:	00 00 00 
  100ead:	66 2e 0f 1f 84 00 00 	nopw   %cs:0x0(%rax,%rax,1)
  100eb4:	00 00 00 
  100eb7:	66 2e 0f 1f 84 00 00 	nopw   %cs:0x0(%rax,%rax,1)
  100ebe:	00 00 00 
  100ec1:	66 2e 0f 1f 84 00 00 	nopw   %cs:0x0(%rax,%rax,1)
  100ec8:	00 00 00 
  100ecb:	66 2e 0f 1f 84 00 00 	nopw   %cs:0x0(%rax,%rax,1)
  100ed2:	00 00 00 
  100ed5:	66 2e 0f 1f 84 00 00 	nopw   %cs:0x0(%rax,%rax,1)
  100edc:	00 00 00 
  100edf:	66 2e 0f 1f 84 00 00 	nopw   %cs:0x0(%rax,%rax,1)
  100ee6:	00 00 00 
  100ee9:	66 2e 0f 1f 84 00 00 	nopw   %cs:0x0(%rax,%rax,1)
  100ef0:	00 00 00 
  100ef3:	66 2e 0f 1f 84 00 00 	nopw   %cs:0x0(%rax,%rax,1)
  100efa:	00 00 00 
  100efd:	66 2e 0f 1f 84 00 00 	nopw   %cs:0x0(%rax,%rax,1)
  100f04:	00 00 00 
  100f07:	66 2e 0f 1f 84 00 00 	nopw   %cs:0x0(%rax,%rax,1)
  100f0e:	00 00 00 
  100f11:	66 2e 0f 1f 84 00 00 	nopw   %cs:0x0(%rax,%rax,1)
  100f18:	00 00 00 
  100f1b:	66 2e 0f 1f 84 00 00 	nopw   %cs:0x0(%rax,%rax,1)
  100f22:	00 00 00 
  100f25:	66 2e 0f 1f 84 00 00 	nopw   %cs:0x0(%rax,%rax,1)
  100f2c:	00 00 00 
  100f2f:	66 2e 0f 1f 84 00 00 	nopw   %cs:0x0(%rax,%rax,1)
  100f36:	00 00 00 
  100f39:	66 2e 0f 1f 84 00 00 	nopw   %cs:0x0(%rax,%rax,1)
  100f40:	00 00 00 
  100f43:	66 2e 0f 1f 84 00 00 	nopw   %cs:0x0(%rax,%rax,1)
  100f4a:	00 00 00 
  100f4d:	66 2e 0f 1f 84 00 00 	nopw   %cs:0x0(%rax,%rax,1)
  100f54:	00 00 00 
  100f57:	66 2e 0f 1f 84 00 00 	nopw   %cs:0x0(%rax,%rax,1)
  100f5e:	00 00 00 
  100f61:	66 2e 0f 1f 84 00 00 	nopw   %cs:0x0(%rax,%rax,1)
  100f68:	00 00 00 
  100f6b:	66 2e 0f 1f 84 00 00 	nopw   %cs:0x0(%rax,%rax,1)
  100f72:	00 00 00 
  100f75:	66 2e 0f 1f 84 00 00 	nopw   %cs:0x0(%rax,%rax,1)
  100f7c:	00 00 00 
  100f7f:	66 2e 0f 1f 84 00 00 	nopw   %cs:0x0(%rax,%rax,1)
  100f86:	00 00 00 
  100f89:	66 2e 0f 1f 84 00 00 	nopw   %cs:0x0(%rax,%rax,1)
  100f90:	00 00 00 
  100f93:	66 2e 0f 1f 84 00 00 	nopw   %cs:0x0(%rax,%rax,1)
  100f9a:	00 00 00 
  100f9d:	66 2e 0f 1f 84 00 00 	nopw   %cs:0x0(%rax,%rax,1)
  100fa4:	00 00 00 
  100fa7:	66 2e 0f 1f 84 00 00 	nopw   %cs:0x0(%rax,%rax,1)
  100fae:	00 00 00 
  100fb1:	66 2e 0f 1f 84 00 00 	nopw   %cs:0x0(%rax,%rax,1)
  100fb8:	00 00 00 
  100fbb:	66 2e 0f 1f 84 00 00 	nopw   %cs:0x0(%rax,%rax,1)
  100fc2:	00 00 00 
  100fc5:	66 2e 0f 1f 84 00 00 	nopw   %cs:0x0(%rax,%rax,1)
  100fcc:	00 00 00 
  100fcf:	66 2e 0f 1f 84 00 00 	nopw   %cs:0x0(%rax,%rax,1)
  100fd6:	00 00 00 
  100fd9:	66 2e 0f 1f 84 00 00 	nopw   %cs:0x0(%rax,%rax,1)
  100fe0:	00 00 00 
  100fe3:	66 2e 0f 1f 84 00 00 	nopw   %cs:0x0(%rax,%rax,1)
  100fea:	00 00 00 
  100fed:	66 2e 0f 1f 84 00 00 	nopw   %cs:0x0(%rax,%rax,1)
  100ff4:	00 00 00 
  100ff7:	66 0f 1f 84 00 00 00 	nopw   0x0(%rax,%rax,1)
  100ffe:	00 00 

0000000000101000 <gdt_64>:
	...
  101008:	ff                   	(bad)  
  101009:	ff 00                	incl   (%rax)
  10100b:	00 00                	add    %al,(%rax)
  10100d:	9a                   	(bad)  
  10100e:	af                   	scas   %es:(%rdi),%eax
  10100f:	00 ff                	add    %bh,%bh
  101011:	ff 00                	incl   (%rax)
  101013:	00 00                	add    %al,(%rax)
  101015:	92                   	xchg   %eax,%edx
  101016:	cf                   	iret   
	...

0000000000101018 <gdtdesc_64>:
  101018:	17                   	(bad)  
  101019:	00 00                	add    %al,(%rax)
  10101b:	10 10                	adc    %dl,(%rax)
	...

0000000000102000 <pml4phys>:
	...

0000000000103000 <pdpt1>:
	...

0000000000104000 <pdpt2>:
	...

0000000000105000 <pde1>:
	...

0000000000106000 <pde2>:
	...

0000000000107000 <multiboot_info>:
  107000:	00 00                	add    %al,(%rax)
	...

Disassembly of section .text:

0000008004200000 <_start+0x8003fffff4>:
  8004200000:	02 b0 ad 1b 00 00    	add    0x1bad(%rax),%dh
  8004200006:	00 00                	add    %al,(%rax)
  8004200008:	fe 4f 52             	decb   0x52(%rdi)
  800420000b:	e4                   	.byte 0xe4

000000800420000c <entry>:
entry:

/* .globl _back_from_head64 */
/* _back_from_head64: */

    movabs   $gdtdesc_64,%rax
  800420000c:	48 b8 38 60 23 04 80 	movabs $0x8004236038,%rax
  8004200013:	00 00 00 
    lgdt     (%rax)
  8004200016:	0f 01 10             	lgdt   (%rax)
    movw    $DATA_SEL,%ax
  8004200019:	66 b8 10 00          	mov    $0x10,%ax
    movw    %ax,%ds
  800420001d:	8e d8                	mov    %eax,%ds
    movw    %ax,%ss
  800420001f:	8e d0                	mov    %eax,%ss
    movw    %ax,%fs
  8004200021:	8e e0                	mov    %eax,%fs
    movw    %ax,%gs
  8004200023:	8e e8                	mov    %eax,%gs
    movw    %ax,%es
  8004200025:	8e c0                	mov    %eax,%es
    pushq   $CODE_SEL
  8004200027:	6a 08                	pushq  $0x8
    movabs  $relocated,%rax
  8004200029:	48 b8 36 00 20 04 80 	movabs $0x8004200036,%rax
  8004200030:	00 00 00 
    pushq   %rax
  8004200033:	50                   	push   %rax
    lretq
  8004200034:	48 cb                	lretq  

0000008004200036 <relocated>:
relocated:

	# Clear the frame pointer register (RBP)
	# so that once we get into debugging C code,
	# stack backtraces will be terminated properly.
	movq	$0x0,%rbp			# nuke frame pointer
  8004200036:	48 c7 c5 00 00 00 00 	mov    $0x0,%rbp

	# Set the stack pointer
	movabs	$(bootstacktop),%rax
  800420003d:	48 b8 00 60 23 04 80 	movabs $0x8004236000,%rax
  8004200044:	00 00 00 
	movq  %rax,%rsp
  8004200047:	48 89 c4             	mov    %rax,%rsp

	# now to C code
    movabs $i386_init, %rax
  800420004a:	48 b8 9a 00 20 04 80 	movabs $0x800420009a,%rax
  8004200051:	00 00 00 
	call *%rax
  8004200054:	ff d0                	callq  *%rax

0000008004200056 <spin>:

	# Should never get here, but in case we do, just spin.
spin:	jmp	spin
  8004200056:	eb fe                	jmp    8004200056 <spin>

0000008004200058 <xchg>:
	if (edxp)
		*edxp = edx;
}

static inline uint32_t
xchg(volatile uint32_t *addr,uint32_t newval){
  8004200058:	55                   	push   %rbp
  8004200059:	48 89 e5             	mov    %rsp,%rbp
  800420005c:	48 83 ec 20          	sub    $0x20,%rsp
  8004200060:	48 89 7d e8          	mov    %rdi,-0x18(%rbp)
  8004200064:	89 75 e4             	mov    %esi,-0x1c(%rbp)
	uint32_t result;
	__asm __volatile("lock; xchgl %0, %1":
  8004200067:	48 8b 55 e8          	mov    -0x18(%rbp),%rdx
  800420006b:	8b 45 e4             	mov    -0x1c(%rbp),%eax
  800420006e:	48 8b 4d e8          	mov    -0x18(%rbp),%rcx
  8004200072:	f0 87 02             	lock xchg %eax,(%rdx)
  8004200075:	89 45 fc             	mov    %eax,-0x4(%rbp)
			 "+m" (*addr), "=a" (result):
			 "1"(newval):
			 "cc");
	return result;
  8004200078:	8b 45 fc             	mov    -0x4(%rbp),%eax
}
  800420007b:	c9                   	leaveq 
  800420007c:	c3                   	retq   

000000800420007d <lock_kernel>:

extern struct spinlock kernel_lock;

static inline void
lock_kernel(void)
{
  800420007d:	55                   	push   %rbp
  800420007e:	48 89 e5             	mov    %rsp,%rbp
	spin_lock(&kernel_lock);
  8004200081:	48 bf 60 67 23 04 80 	movabs $0x8004236760,%rdi
  8004200088:	00 00 00 
  800420008b:	48 b8 8e 84 21 04 80 	movabs $0x800421848e,%rax
  8004200092:	00 00 00 
  8004200095:	ff d0                	callq  *%rax
}
  8004200097:	90                   	nop
  8004200098:	5d                   	pop    %rbp
  8004200099:	c3                   	retq   

000000800420009a <i386_init>:



void
i386_init(void)
{
  800420009a:	55                   	push   %rbp
  800420009b:	48 89 e5             	mov    %rsp,%rbp
	extern char edata[], end[];

	// Before doing anything else, complete the ELF loading process.
	// Clear the uninitialized global data (BSS) section of our program.
	// This ensures that all static/global variables start out zero.
	memset(edata, 0, end - edata);
  800420009e:	48 ba 10 20 72 04 80 	movabs $0x8004722010,%rdx
  80042000a5:	00 00 00 
  80042000a8:	48 b8 00 fd 4d 04 80 	movabs $0x80044dfd00,%rax
  80042000af:	00 00 00 
  80042000b2:	48 29 c2             	sub    %rax,%rdx
  80042000b5:	48 89 d0             	mov    %rdx,%rax
  80042000b8:	48 89 c2             	mov    %rax,%rdx
  80042000bb:	be 00 00 00 00       	mov    $0x0,%esi
  80042000c0:	48 bf 00 fd 4d 04 80 	movabs $0x80044dfd00,%rdi
  80042000c7:	00 00 00 
  80042000ca:	48 b8 b9 11 21 04 80 	movabs $0x80042111b9,%rax
  80042000d1:	00 00 00 
  80042000d4:	ff d0                	callq  *%rax

	// Initialize the console.
	// Can't call cprintf until after we do this!
	cons_init();
  80042000d6:	48 b8 b5 11 20 04 80 	movabs $0x80042011b5,%rax
  80042000dd:	00 00 00 
  80042000e0:	ff d0                	callq  *%rax


	cprintf("6828 decimal is %o octal!\n", 6828);
  80042000e2:	be ac 1a 00 00       	mov    $0x1aac,%esi
  80042000e7:	48 bf e0 ef 21 04 80 	movabs $0x800421efe0,%rdi
  80042000ee:	00 00 00 
  80042000f1:	b8 00 00 00 00       	mov    $0x0,%eax
  80042000f6:	48 ba eb 9c 20 04 80 	movabs $0x8004209ceb,%rdx
  80042000fd:	00 00 00 
  8004200100:	ff d2                	callq  *%rdx
    */
#endif

#ifndef VMM_GUEST
	extern char end[];
	end_debug = read_section_headers((0x10000+KERNBASE), (uintptr_t)end);
  8004200102:	48 b8 10 20 72 04 80 	movabs $0x8004722010,%rax
  8004200109:	00 00 00 
  800420010c:	48 89 c6             	mov    %rax,%rsi
  800420010f:	48 bf 00 00 01 04 80 	movabs $0x8004010000,%rdi
  8004200116:	00 00 00 
  8004200119:	48 b8 14 6b 21 04 80 	movabs $0x8004216b14,%rax
  8004200120:	00 00 00 
  8004200123:	ff d0                	callq  *%rax
  8004200125:	48 89 c2             	mov    %rax,%rdx
  8004200128:	48 b8 d0 f5 6d 04 80 	movabs $0x80046df5d0,%rax
  800420012f:	00 00 00 
  8004200132:	48 89 10             	mov    %rdx,(%rax)
#endif

	// Lab 2 memory management initialization functions
	x64_vm_init();
  8004200135:	b8 00 00 00 00       	mov    $0x0,%eax
  800420013a:	48 ba 45 26 20 04 80 	movabs $0x8004202645,%rdx
  8004200141:	00 00 00 
  8004200144:	ff d2                	callq  *%rdx


	// Lab 3 user environment initialization functions
	env_init();
  8004200146:	48 b8 94 7f 20 04 80 	movabs $0x8004207f94,%rax
  800420014d:	00 00 00 
  8004200150:	ff d0                	callq  *%rax
	trap_init();
  8004200152:	48 b8 64 9e 20 04 80 	movabs $0x8004209e64,%rax
  8004200159:	00 00 00 
  800420015c:	ff d0                	callq  *%rax

#ifndef VMM_GUEST
	// Lab 4 multiprocessor initialization functions
	mp_init();
  800420015e:	48 b8 a7 7a 21 04 80 	movabs $0x8004217aa7,%rax
  8004200165:	00 00 00 
  8004200168:	ff d0                	callq  *%rax
	lapic_init();
  800420016a:	48 b8 01 7f 21 04 80 	movabs $0x8004217f01,%rax
  8004200171:	00 00 00 
  8004200174:	ff d0                	callq  *%rax
#endif

	// Lab 4 multitasking initialization functions
	pic_init();
  8004200176:	48 b8 e6 99 20 04 80 	movabs $0x80042099e6,%rax
  800420017d:	00 00 00 
  8004200180:	ff d0                	callq  *%rax

#ifndef VMM_GUEST  // Does not work in guest mode
	// Lab 6 hardware initialization functions
	time_init();
  8004200182:	48 b8 53 99 21 04 80 	movabs $0x8004219953,%rax
  8004200189:	00 00 00 
  800420018c:	ff d0                	callq  *%rax
	pci_init();
  800420018e:	48 b8 17 99 21 04 80 	movabs $0x8004219917,%rax
  8004200195:	00 00 00 
  8004200198:	ff d0                	callq  *%rax
#endif 

	// Acquire the big kernel lock before waking up APs
	// Your code here:

	lock_kernel();
  800420019a:	48 b8 7d 00 20 04 80 	movabs $0x800420007d,%rax
  80042001a1:	00 00 00 
  80042001a4:	ff d0                	callq  *%rax


#ifndef VMM_GUEST
	// Starting non-boot CPUs
	boot_aps();
  80042001a6:	48 b8 00 02 20 04 80 	movabs $0x8004200200,%rax
  80042001ad:	00 00 00 
  80042001b0:	ff d0                	callq  *%rax
#endif

	// Start fs.
	ENV_CREATE(fs_fs, ENV_TYPE_FS);
  80042001b2:	be 01 00 00 00       	mov    $0x1,%esi
  80042001b7:	48 bf 58 05 2c 04 80 	movabs $0x80042c0558,%rdi
  80042001be:	00 00 00 
  80042001c1:	48 b8 1b 90 20 04 80 	movabs $0x800420901b,%rax
  80042001c8:	00 00 00 
  80042001cb:	ff d0                	callq  *%rax
#if defined(TEST_EPT_MAP)
	test_ept_map();
#endif
#endif

	ENV_CREATE(user_icode, ENV_TYPE_USER);
  80042001cd:	be 00 00 00 00       	mov    $0x0,%esi
  80042001d2:	48 bf 80 82 2a 04 80 	movabs $0x80042a8280,%rdi
  80042001d9:	00 00 00 
  80042001dc:	48 b8 1b 90 20 04 80 	movabs $0x800420901b,%rax
  80042001e3:	00 00 00 
  80042001e6:	ff d0                	callq  *%rax

#endif // TEST*


	// Should not be necessary - drains keyboard because interrupt has given up.
	kbd_intr();
  80042001e8:	48 b8 e3 0f 20 04 80 	movabs $0x8004200fe3,%rax
  80042001ef:	00 00 00 
  80042001f2:	ff d0                	callq  *%rax



	// Schedule and run the first user environment!
	sched_yield();
  80042001f4:	48 b8 a6 da 20 04 80 	movabs $0x800420daa6,%rax
  80042001fb:	00 00 00 
  80042001fe:	ff d0                	callq  *%rax

0000008004200200 <boot_aps>:
void *mpentry_kstack;

// Start the non-boot (AP) processors.
static void
boot_aps(void)
{
  8004200200:	55                   	push   %rbp
  8004200201:	48 89 e5             	mov    %rsp,%rbp
  8004200204:	48 83 ec 30          	sub    $0x30,%rsp
	extern unsigned char mpentry_start[], mpentry_end[];
	void *code;
	struct CpuInfo *c;

	// Write entry code to unused memory at MPENTRY_PADDR
	code = KADDR(MPENTRY_PADDR);
  8004200208:	48 c7 45 f0 00 70 00 	movq   $0x7000,-0x10(%rbp)
  800420020f:	00 
  8004200210:	48 8b 45 f0          	mov    -0x10(%rbp),%rax
  8004200214:	48 c1 e8 0c          	shr    $0xc,%rax
  8004200218:	89 45 ec             	mov    %eax,-0x14(%rbp)
  800420021b:	8b 55 ec             	mov    -0x14(%rbp),%edx
  800420021e:	48 b8 f8 f5 6d 04 80 	movabs $0x80046df5f8,%rax
  8004200225:	00 00 00 
  8004200228:	48 8b 00             	mov    (%rax),%rax
  800420022b:	48 39 c2             	cmp    %rax,%rdx
  800420022e:	72 32                	jb     8004200262 <boot_aps+0x62>
  8004200230:	48 8b 45 f0          	mov    -0x10(%rbp),%rax
  8004200234:	48 89 c1             	mov    %rax,%rcx
  8004200237:	48 ba 00 f0 21 04 80 	movabs $0x800421f000,%rdx
  800420023e:	00 00 00 
  8004200241:	be ac 00 00 00       	mov    $0xac,%esi
  8004200246:	48 bf 23 f0 21 04 80 	movabs $0x800421f023,%rdi
  800420024d:	00 00 00 
  8004200250:	b8 00 00 00 00       	mov    $0x0,%eax
  8004200255:	49 b8 d3 04 20 04 80 	movabs $0x80042004d3,%r8
  800420025c:	00 00 00 
  800420025f:	41 ff d0             	callq  *%r8
  8004200262:	48 ba 00 00 00 04 80 	movabs $0x8004000000,%rdx
  8004200269:	00 00 00 
  800420026c:	48 8b 45 f0          	mov    -0x10(%rbp),%rax
  8004200270:	48 01 d0             	add    %rdx,%rax
  8004200273:	48 89 45 e0          	mov    %rax,-0x20(%rbp)
	memmove(code, mpentry_start, mpentry_end - mpentry_start);
  8004200277:	48 ba ce 75 21 04 80 	movabs $0x80042175ce,%rdx
  800420027e:	00 00 00 
  8004200281:	48 b8 e8 74 21 04 80 	movabs $0x80042174e8,%rax
  8004200288:	00 00 00 
  800420028b:	48 29 c2             	sub    %rax,%rdx
  800420028e:	48 89 d0             	mov    %rdx,%rax
  8004200291:	48 89 c2             	mov    %rax,%rdx
  8004200294:	48 8b 45 e0          	mov    -0x20(%rbp),%rax
  8004200298:	48 be e8 74 21 04 80 	movabs $0x80042174e8,%rsi
  800420029f:	00 00 00 
  80042002a2:	48 89 c7             	mov    %rax,%rdi
  80042002a5:	48 b8 44 12 21 04 80 	movabs $0x8004211244,%rax
  80042002ac:	00 00 00 
  80042002af:	ff d0                	callq  *%rax
	// Boot each AP one at a time
	for (c = cpus; c < cpus + ncpu; c++) {
  80042002b1:	48 b8 20 10 6e 04 80 	movabs $0x80046e1020,%rax
  80042002b8:	00 00 00 
  80042002bb:	48 89 45 f8          	mov    %rax,-0x8(%rbp)
  80042002bf:	e9 13 01 00 00       	jmpq   80042003d7 <boot_aps+0x1d7>
		if (c == cpus + cpunum())  // We've started already.
  80042002c4:	48 b8 fd 80 21 04 80 	movabs $0x80042180fd,%rax
  80042002cb:	00 00 00 
  80042002ce:	ff d0                	callq  *%rax
  80042002d0:	48 98                	cltq   
  80042002d2:	48 c1 e0 03          	shl    $0x3,%rax
  80042002d6:	48 89 c2             	mov    %rax,%rdx
  80042002d9:	48 c1 e2 04          	shl    $0x4,%rdx
  80042002dd:	48 01 c2             	add    %rax,%rdx
  80042002e0:	48 b8 20 10 6e 04 80 	movabs $0x80046e1020,%rax
  80042002e7:	00 00 00 
  80042002ea:	48 01 d0             	add    %rdx,%rax
  80042002ed:	48 3b 45 f8          	cmp    -0x8(%rbp),%rax
  80042002f1:	0f 84 d7 00 00 00    	je     80042003ce <boot_aps+0x1ce>
			continue;

		// Tell mpentry.S what stack to use 
		mpentry_kstack = percpu_kstacks[c - cpus] + KSTKSIZE;
  80042002f7:	48 8b 55 f8          	mov    -0x8(%rbp),%rdx
  80042002fb:	48 b8 20 10 6e 04 80 	movabs $0x80046e1020,%rax
  8004200302:	00 00 00 
  8004200305:	48 29 c2             	sub    %rax,%rdx
  8004200308:	48 89 d0             	mov    %rdx,%rax
  800420030b:	48 c1 f8 03          	sar    $0x3,%rax
  800420030f:	48 89 c2             	mov    %rax,%rdx
  8004200312:	48 b8 f1 f0 f0 f0 f0 	movabs $0xf0f0f0f0f0f0f0f1,%rax
  8004200319:	f0 f0 f0 
  800420031c:	48 0f af c2          	imul   %rdx,%rax
  8004200320:	48 c1 e0 10          	shl    $0x10,%rax
  8004200324:	48 89 c2             	mov    %rax,%rdx
  8004200327:	48 b8 00 20 6e 04 80 	movabs $0x80046e2000,%rax
  800420032e:	00 00 00 
  8004200331:	48 01 d0             	add    %rdx,%rax
  8004200334:	48 8d 90 00 00 01 00 	lea    0x10000(%rax),%rdx
  800420033b:	48 b8 e0 f5 6d 04 80 	movabs $0x80046df5e0,%rax
  8004200342:	00 00 00 
  8004200345:	48 89 10             	mov    %rdx,(%rax)
		// Start the CPU at mpentry_start
		lapic_startap(c->cpu_id, PADDR(code));
  8004200348:	48 8b 45 e0          	mov    -0x20(%rbp),%rax
  800420034c:	48 89 45 d8          	mov    %rax,-0x28(%rbp)
  8004200350:	48 b8 ff ff ff 03 80 	movabs $0x8003ffffff,%rax
  8004200357:	00 00 00 
  800420035a:	48 39 45 d8          	cmp    %rax,-0x28(%rbp)
  800420035e:	77 32                	ja     8004200392 <boot_aps+0x192>
  8004200360:	48 8b 45 d8          	mov    -0x28(%rbp),%rax
  8004200364:	48 89 c1             	mov    %rax,%rcx
  8004200367:	48 ba 30 f0 21 04 80 	movabs $0x800421f030,%rdx
  800420036e:	00 00 00 
  8004200371:	be b6 00 00 00       	mov    $0xb6,%esi
  8004200376:	48 bf 23 f0 21 04 80 	movabs $0x800421f023,%rdi
  800420037d:	00 00 00 
  8004200380:	b8 00 00 00 00       	mov    $0x0,%eax
  8004200385:	49 b8 d3 04 20 04 80 	movabs $0x80042004d3,%r8
  800420038c:	00 00 00 
  800420038f:	41 ff d0             	callq  *%r8
  8004200392:	48 ba 00 00 00 fc 7f 	movabs $0xffffff7ffc000000,%rdx
  8004200399:	ff ff ff 
  800420039c:	48 8b 45 d8          	mov    -0x28(%rbp),%rax
  80042003a0:	48 01 d0             	add    %rdx,%rax
  80042003a3:	89 c2                	mov    %eax,%edx
  80042003a5:	48 8b 45 f8          	mov    -0x8(%rbp),%rax
  80042003a9:	0f b6 00             	movzbl (%rax),%eax
  80042003ac:	0f b6 c0             	movzbl %al,%eax
  80042003af:	89 d6                	mov    %edx,%esi
  80042003b1:	89 c7                	mov    %eax,%edi
  80042003b3:	48 b8 6f 81 21 04 80 	movabs $0x800421816f,%rax
  80042003ba:	00 00 00 
  80042003bd:	ff d0                	callq  *%rax
		// Wait for the CPU to finish some basic setup in mp_main()
		while(c->cpu_status != CPU_STARTED)
  80042003bf:	90                   	nop
  80042003c0:	48 8b 45 f8          	mov    -0x8(%rbp),%rax
  80042003c4:	8b 40 04             	mov    0x4(%rax),%eax
  80042003c7:	83 f8 01             	cmp    $0x1,%eax
  80042003ca:	75 f4                	jne    80042003c0 <boot_aps+0x1c0>
  80042003cc:	eb 01                	jmp    80042003cf <boot_aps+0x1cf>
	code = KADDR(MPENTRY_PADDR);
	memmove(code, mpentry_start, mpentry_end - mpentry_start);
	// Boot each AP one at a time
	for (c = cpus; c < cpus + ncpu; c++) {
		if (c == cpus + cpunum())  // We've started already.
			continue;
  80042003ce:	90                   	nop

	// Write entry code to unused memory at MPENTRY_PADDR
	code = KADDR(MPENTRY_PADDR);
	memmove(code, mpentry_start, mpentry_end - mpentry_start);
	// Boot each AP one at a time
	for (c = cpus; c < cpus + ncpu; c++) {
  80042003cf:	48 81 45 f8 88 00 00 	addq   $0x88,-0x8(%rbp)
  80042003d6:	00 
  80042003d7:	48 b8 48 12 6e 04 80 	movabs $0x80046e1248,%rax
  80042003de:	00 00 00 
  80042003e1:	8b 00                	mov    (%rax),%eax
  80042003e3:	48 98                	cltq   
  80042003e5:	48 c1 e0 03          	shl    $0x3,%rax
  80042003e9:	48 89 c2             	mov    %rax,%rdx
  80042003ec:	48 c1 e2 04          	shl    $0x4,%rdx
  80042003f0:	48 01 c2             	add    %rax,%rdx
  80042003f3:	48 b8 20 10 6e 04 80 	movabs $0x80046e1020,%rax
  80042003fa:	00 00 00 
  80042003fd:	48 01 d0             	add    %rdx,%rax
  8004200400:	48 3b 45 f8          	cmp    -0x8(%rbp),%rax
  8004200404:	0f 87 ba fe ff ff    	ja     80042002c4 <boot_aps+0xc4>
		lapic_startap(c->cpu_id, PADDR(code));
		// Wait for the CPU to finish some basic setup in mp_main()
		while(c->cpu_status != CPU_STARTED)
			;
	}
}
  800420040a:	90                   	nop
  800420040b:	c9                   	leaveq 
  800420040c:	c3                   	retq   

000000800420040d <mp_main>:

// Setup code for APs
void
mp_main(void)
{
  800420040d:	55                   	push   %rbp
  800420040e:	48 89 e5             	mov    %rsp,%rbp
  8004200411:	48 83 ec 10          	sub    $0x10,%rsp
	// We are in high EIP now, safe to switch to kern_pgdir 
	lcr3(boot_cr3);
  8004200415:	48 b8 e8 f5 6d 04 80 	movabs $0x80046df5e8,%rax
  800420041c:	00 00 00 
  800420041f:	48 8b 00             	mov    (%rax),%rax
  8004200422:	48 89 45 f8          	mov    %rax,-0x8(%rbp)
}

static __inline void
lcr3(uint64_t val)
{
	__asm __volatile("movq %0,%%cr3" : : "r" (val));
  8004200426:	48 8b 45 f8          	mov    -0x8(%rbp),%rax
  800420042a:	0f 22 d8             	mov    %rax,%cr3
	cprintf("SMP: CPU %d starting\n", cpunum());
  800420042d:	48 b8 fd 80 21 04 80 	movabs $0x80042180fd,%rax
  8004200434:	00 00 00 
  8004200437:	ff d0                	callq  *%rax
  8004200439:	89 c6                	mov    %eax,%esi
  800420043b:	48 bf 54 f0 21 04 80 	movabs $0x800421f054,%rdi
  8004200442:	00 00 00 
  8004200445:	b8 00 00 00 00       	mov    $0x0,%eax
  800420044a:	48 ba eb 9c 20 04 80 	movabs $0x8004209ceb,%rdx
  8004200451:	00 00 00 
  8004200454:	ff d2                	callq  *%rdx

	lapic_init();
  8004200456:	48 b8 01 7f 21 04 80 	movabs $0x8004217f01,%rax
  800420045d:	00 00 00 
  8004200460:	ff d0                	callq  *%rax
	env_init_percpu();
  8004200462:	48 b8 62 80 20 04 80 	movabs $0x8004208062,%rax
  8004200469:	00 00 00 
  800420046c:	ff d0                	callq  *%rax
	trap_init_percpu();
  800420046e:	48 b8 7a c5 20 04 80 	movabs $0x800420c57a,%rax
  8004200475:	00 00 00 
  8004200478:	ff d0                	callq  *%rax
	xchg(&thiscpu->cpu_status, CPU_STARTED); // tell boot_aps() we're up
  800420047a:	48 b8 fd 80 21 04 80 	movabs $0x80042180fd,%rax
  8004200481:	00 00 00 
  8004200484:	ff d0                	callq  *%rax
  8004200486:	48 98                	cltq   
  8004200488:	48 c1 e0 03          	shl    $0x3,%rax
  800420048c:	48 89 c2             	mov    %rax,%rdx
  800420048f:	48 c1 e2 04          	shl    $0x4,%rdx
  8004200493:	48 01 d0             	add    %rdx,%rax
  8004200496:	48 ba 20 10 6e 04 80 	movabs $0x80046e1020,%rdx
  800420049d:	00 00 00 
  80042004a0:	48 01 d0             	add    %rdx,%rax
  80042004a3:	48 83 c0 04          	add    $0x4,%rax
  80042004a7:	be 01 00 00 00       	mov    $0x1,%esi
  80042004ac:	48 89 c7             	mov    %rax,%rdi
  80042004af:	48 b8 58 00 20 04 80 	movabs $0x8004200058,%rax
  80042004b6:	00 00 00 
  80042004b9:	ff d0                	callq  *%rax
	// to start running processes on this CPU.  But make sure that
	// only one CPU can enter the scheduler at a time!
	//
	// Your code here:

	lock_kernel();
  80042004bb:	48 b8 7d 00 20 04 80 	movabs $0x800420007d,%rax
  80042004c2:	00 00 00 
  80042004c5:	ff d0                	callq  *%rax
	sched_yield();     // start running processes
  80042004c7:	48 b8 a6 da 20 04 80 	movabs $0x800420daa6,%rax
  80042004ce:	00 00 00 
  80042004d1:	ff d0                	callq  *%rax

00000080042004d3 <_panic>:
 * Panic is called on unresolvable fatal errors.
 * It prints "panic: mesg", and then enters the kernel monitor.
 */
void
_panic(const char *file, int line, const char *fmt,...)
{
  80042004d3:	55                   	push   %rbp
  80042004d4:	48 89 e5             	mov    %rsp,%rbp
  80042004d7:	48 81 ec f0 00 00 00 	sub    $0xf0,%rsp
  80042004de:	48 89 bd 28 ff ff ff 	mov    %rdi,-0xd8(%rbp)
  80042004e5:	89 b5 24 ff ff ff    	mov    %esi,-0xdc(%rbp)
  80042004eb:	48 89 95 18 ff ff ff 	mov    %rdx,-0xe8(%rbp)
  80042004f2:	48 89 8d 68 ff ff ff 	mov    %rcx,-0x98(%rbp)
  80042004f9:	4c 89 85 70 ff ff ff 	mov    %r8,-0x90(%rbp)
  8004200500:	4c 89 8d 78 ff ff ff 	mov    %r9,-0x88(%rbp)
  8004200507:	84 c0                	test   %al,%al
  8004200509:	74 20                	je     800420052b <_panic+0x58>
  800420050b:	0f 29 45 80          	movaps %xmm0,-0x80(%rbp)
  800420050f:	0f 29 4d 90          	movaps %xmm1,-0x70(%rbp)
  8004200513:	0f 29 55 a0          	movaps %xmm2,-0x60(%rbp)
  8004200517:	0f 29 5d b0          	movaps %xmm3,-0x50(%rbp)
  800420051b:	0f 29 65 c0          	movaps %xmm4,-0x40(%rbp)
  800420051f:	0f 29 6d d0          	movaps %xmm5,-0x30(%rbp)
  8004200523:	0f 29 75 e0          	movaps %xmm6,-0x20(%rbp)
  8004200527:	0f 29 7d f0          	movaps %xmm7,-0x10(%rbp)
	va_list ap;

	if (panicstr)
  800420052b:	48 b8 d8 f5 6d 04 80 	movabs $0x80046df5d8,%rax
  8004200532:	00 00 00 
  8004200535:	48 8b 00             	mov    (%rax),%rax
  8004200538:	48 85 c0             	test   %rax,%rax
  800420053b:	74 05                	je     8004200542 <_panic+0x6f>
		goto dead;
  800420053d:	e9 ba 00 00 00       	jmpq   80042005fc <_panic+0x129>
	panicstr = fmt;
  8004200542:	48 b8 d8 f5 6d 04 80 	movabs $0x80046df5d8,%rax
  8004200549:	00 00 00 
  800420054c:	48 8b 95 18 ff ff ff 	mov    -0xe8(%rbp),%rdx
  8004200553:	48 89 10             	mov    %rdx,(%rax)

	// Be extra sure that the machine is in as reasonable state
	__asm __volatile("cli; cld");
  8004200556:	fa                   	cli    
  8004200557:	fc                   	cld    

	va_start(ap, fmt);
  8004200558:	c7 85 38 ff ff ff 18 	movl   $0x18,-0xc8(%rbp)
  800420055f:	00 00 00 
  8004200562:	c7 85 3c ff ff ff 30 	movl   $0x30,-0xc4(%rbp)
  8004200569:	00 00 00 
  800420056c:	48 8d 45 10          	lea    0x10(%rbp),%rax
  8004200570:	48 89 85 40 ff ff ff 	mov    %rax,-0xc0(%rbp)
  8004200577:	48 8d 85 50 ff ff ff 	lea    -0xb0(%rbp),%rax
  800420057e:	48 89 85 48 ff ff ff 	mov    %rax,-0xb8(%rbp)

	cprintf("kernel panic on CPU %d at %s:%d: ", cpunum(), file, line);
  8004200585:	48 b8 fd 80 21 04 80 	movabs $0x80042180fd,%rax
  800420058c:	00 00 00 
  800420058f:	ff d0                	callq  *%rax
  8004200591:	89 c6                	mov    %eax,%esi
  8004200593:	8b 95 24 ff ff ff    	mov    -0xdc(%rbp),%edx
  8004200599:	48 8b 85 28 ff ff ff 	mov    -0xd8(%rbp),%rax
  80042005a0:	89 d1                	mov    %edx,%ecx
  80042005a2:	48 89 c2             	mov    %rax,%rdx
  80042005a5:	48 bf 70 f0 21 04 80 	movabs $0x800421f070,%rdi
  80042005ac:	00 00 00 
  80042005af:	b8 00 00 00 00       	mov    $0x0,%eax
  80042005b4:	49 b8 eb 9c 20 04 80 	movabs $0x8004209ceb,%r8
  80042005bb:	00 00 00 
  80042005be:	41 ff d0             	callq  *%r8

	vcprintf(fmt, ap);
  80042005c1:	48 8d 95 38 ff ff ff 	lea    -0xc8(%rbp),%rdx
  80042005c8:	48 8b 85 18 ff ff ff 	mov    -0xe8(%rbp),%rax
  80042005cf:	48 89 d6             	mov    %rdx,%rsi
  80042005d2:	48 89 c7             	mov    %rax,%rdi
  80042005d5:	48 b8 8c 9c 20 04 80 	movabs $0x8004209c8c,%rax
  80042005dc:	00 00 00 
  80042005df:	ff d0                	callq  *%rax
	cprintf("\n");
  80042005e1:	48 bf 92 f0 21 04 80 	movabs $0x800421f092,%rdi
  80042005e8:	00 00 00 
  80042005eb:	b8 00 00 00 00       	mov    $0x0,%eax
  80042005f0:	48 ba eb 9c 20 04 80 	movabs $0x8004209ceb,%rdx
  80042005f7:	00 00 00 
  80042005fa:	ff d2                	callq  *%rdx
	va_end(ap);

dead:
	/* break into the kernel monitor */
	while (1)
		monitor(NULL);
  80042005fc:	bf 00 00 00 00       	mov    $0x0,%edi
  8004200601:	48 b8 73 1a 20 04 80 	movabs $0x8004201a73,%rax
  8004200608:	00 00 00 
  800420060b:	ff d0                	callq  *%rax
  800420060d:	eb ed                	jmp    80042005fc <_panic+0x129>

000000800420060f <_warn>:
}

/* like panic, but don't */
void
_warn(const char *file, int line, const char *fmt,...)
{
  800420060f:	55                   	push   %rbp
  8004200610:	48 89 e5             	mov    %rsp,%rbp
  8004200613:	48 81 ec f0 00 00 00 	sub    $0xf0,%rsp
  800420061a:	48 89 bd 28 ff ff ff 	mov    %rdi,-0xd8(%rbp)
  8004200621:	89 b5 24 ff ff ff    	mov    %esi,-0xdc(%rbp)
  8004200627:	48 89 95 18 ff ff ff 	mov    %rdx,-0xe8(%rbp)
  800420062e:	48 89 8d 68 ff ff ff 	mov    %rcx,-0x98(%rbp)
  8004200635:	4c 89 85 70 ff ff ff 	mov    %r8,-0x90(%rbp)
  800420063c:	4c 89 8d 78 ff ff ff 	mov    %r9,-0x88(%rbp)
  8004200643:	84 c0                	test   %al,%al
  8004200645:	74 20                	je     8004200667 <_warn+0x58>
  8004200647:	0f 29 45 80          	movaps %xmm0,-0x80(%rbp)
  800420064b:	0f 29 4d 90          	movaps %xmm1,-0x70(%rbp)
  800420064f:	0f 29 55 a0          	movaps %xmm2,-0x60(%rbp)
  8004200653:	0f 29 5d b0          	movaps %xmm3,-0x50(%rbp)
  8004200657:	0f 29 65 c0          	movaps %xmm4,-0x40(%rbp)
  800420065b:	0f 29 6d d0          	movaps %xmm5,-0x30(%rbp)
  800420065f:	0f 29 75 e0          	movaps %xmm6,-0x20(%rbp)
  8004200663:	0f 29 7d f0          	movaps %xmm7,-0x10(%rbp)
	va_list ap;

	va_start(ap, fmt);
  8004200667:	c7 85 38 ff ff ff 18 	movl   $0x18,-0xc8(%rbp)
  800420066e:	00 00 00 
  8004200671:	c7 85 3c ff ff ff 30 	movl   $0x30,-0xc4(%rbp)
  8004200678:	00 00 00 
  800420067b:	48 8d 45 10          	lea    0x10(%rbp),%rax
  800420067f:	48 89 85 40 ff ff ff 	mov    %rax,-0xc0(%rbp)
  8004200686:	48 8d 85 50 ff ff ff 	lea    -0xb0(%rbp),%rax
  800420068d:	48 89 85 48 ff ff ff 	mov    %rax,-0xb8(%rbp)
	cprintf("kernel warning at %s:%d: ", file, line);
  8004200694:	8b 95 24 ff ff ff    	mov    -0xdc(%rbp),%edx
  800420069a:	48 8b 85 28 ff ff ff 	mov    -0xd8(%rbp),%rax
  80042006a1:	48 89 c6             	mov    %rax,%rsi
  80042006a4:	48 bf 94 f0 21 04 80 	movabs $0x800421f094,%rdi
  80042006ab:	00 00 00 
  80042006ae:	b8 00 00 00 00       	mov    $0x0,%eax
  80042006b3:	48 b9 eb 9c 20 04 80 	movabs $0x8004209ceb,%rcx
  80042006ba:	00 00 00 
  80042006bd:	ff d1                	callq  *%rcx
	vcprintf(fmt, ap);
  80042006bf:	48 8d 95 38 ff ff ff 	lea    -0xc8(%rbp),%rdx
  80042006c6:	48 8b 85 18 ff ff ff 	mov    -0xe8(%rbp),%rax
  80042006cd:	48 89 d6             	mov    %rdx,%rsi
  80042006d0:	48 89 c7             	mov    %rax,%rdi
  80042006d3:	48 b8 8c 9c 20 04 80 	movabs $0x8004209c8c,%rax
  80042006da:	00 00 00 
  80042006dd:	ff d0                	callq  *%rax
	cprintf("\n");
  80042006df:	48 bf 92 f0 21 04 80 	movabs $0x800421f092,%rdi
  80042006e6:	00 00 00 
  80042006e9:	b8 00 00 00 00       	mov    $0x0,%eax
  80042006ee:	48 ba eb 9c 20 04 80 	movabs $0x8004209ceb,%rdx
  80042006f5:	00 00 00 
  80042006f8:	ff d2                	callq  *%rdx
	va_end(ap);
}
  80042006fa:	90                   	nop
  80042006fb:	c9                   	leaveq 
  80042006fc:	c3                   	retq   

00000080042006fd <delay>:
static void cons_putc(int c);

// Stupid I/O delay routine necessitated by historical PC design flaws
static void
delay(void)
{
  80042006fd:	55                   	push   %rbp
  80042006fe:	48 89 e5             	mov    %rsp,%rbp
  8004200701:	48 83 ec 20          	sub    $0x20,%rsp
  8004200705:	c7 45 fc 84 00 00 00 	movl   $0x84,-0x4(%rbp)

static __inline uint8_t
inb(int port)
{
	uint8_t data;
	__asm __volatile("inb %w1,%0" : "=a" (data) : "d" (port));
  800420070c:	8b 45 fc             	mov    -0x4(%rbp),%eax
  800420070f:	89 c2                	mov    %eax,%edx
  8004200711:	ec                   	in     (%dx),%al
  8004200712:	88 45 ec             	mov    %al,-0x14(%rbp)
  8004200715:	c7 45 f8 84 00 00 00 	movl   $0x84,-0x8(%rbp)
  800420071c:	8b 45 f8             	mov    -0x8(%rbp),%eax
  800420071f:	89 c2                	mov    %eax,%edx
  8004200721:	ec                   	in     (%dx),%al
  8004200722:	88 45 ed             	mov    %al,-0x13(%rbp)
  8004200725:	c7 45 f4 84 00 00 00 	movl   $0x84,-0xc(%rbp)
  800420072c:	8b 45 f4             	mov    -0xc(%rbp),%eax
  800420072f:	89 c2                	mov    %eax,%edx
  8004200731:	ec                   	in     (%dx),%al
  8004200732:	88 45 ee             	mov    %al,-0x12(%rbp)
  8004200735:	c7 45 f0 84 00 00 00 	movl   $0x84,-0x10(%rbp)
  800420073c:	8b 45 f0             	mov    -0x10(%rbp),%eax
  800420073f:	89 c2                	mov    %eax,%edx
  8004200741:	ec                   	in     (%dx),%al
  8004200742:	88 45 ef             	mov    %al,-0x11(%rbp)
	inb(0x84);
	inb(0x84);
	inb(0x84);
	inb(0x84);
}
  8004200745:	90                   	nop
  8004200746:	c9                   	leaveq 
  8004200747:	c3                   	retq   

0000008004200748 <serial_proc_data>:

static bool serial_exists;

static int
serial_proc_data(void)
{
  8004200748:	55                   	push   %rbp
  8004200749:	48 89 e5             	mov    %rsp,%rbp
  800420074c:	48 83 ec 10          	sub    $0x10,%rsp
  8004200750:	c7 45 f8 fd 03 00 00 	movl   $0x3fd,-0x8(%rbp)
  8004200757:	8b 45 f8             	mov    -0x8(%rbp),%eax
  800420075a:	89 c2                	mov    %eax,%edx
  800420075c:	ec                   	in     (%dx),%al
  800420075d:	88 45 f7             	mov    %al,-0x9(%rbp)
	return data;
  8004200760:	0f b6 45 f7          	movzbl -0x9(%rbp),%eax
	if (!(inb(COM1+COM_LSR) & COM_LSR_DATA))
  8004200764:	0f b6 c0             	movzbl %al,%eax
  8004200767:	83 e0 01             	and    $0x1,%eax
  800420076a:	85 c0                	test   %eax,%eax
  800420076c:	75 07                	jne    8004200775 <serial_proc_data+0x2d>
		return -1;
  800420076e:	b8 ff ff ff ff       	mov    $0xffffffff,%eax
  8004200773:	eb 17                	jmp    800420078c <serial_proc_data+0x44>
  8004200775:	c7 45 fc f8 03 00 00 	movl   $0x3f8,-0x4(%rbp)

static __inline uint8_t
inb(int port)
{
	uint8_t data;
	__asm __volatile("inb %w1,%0" : "=a" (data) : "d" (port));
  800420077c:	8b 45 fc             	mov    -0x4(%rbp),%eax
  800420077f:	89 c2                	mov    %eax,%edx
  8004200781:	ec                   	in     (%dx),%al
  8004200782:	88 45 f6             	mov    %al,-0xa(%rbp)
	return data;
  8004200785:	0f b6 45 f6          	movzbl -0xa(%rbp),%eax
	return inb(COM1+COM_RX);
  8004200789:	0f b6 c0             	movzbl %al,%eax
}
  800420078c:	c9                   	leaveq 
  800420078d:	c3                   	retq   

000000800420078e <serial_intr>:

void
serial_intr(void)
{
  800420078e:	55                   	push   %rbp
  800420078f:	48 89 e5             	mov    %rsp,%rbp
	if (serial_exists)
  8004200792:	48 b8 00 00 4e 04 80 	movabs $0x80044e0000,%rax
  8004200799:	00 00 00 
  800420079c:	0f b6 00             	movzbl (%rax),%eax
  800420079f:	84 c0                	test   %al,%al
  80042007a1:	74 16                	je     80042007b9 <serial_intr+0x2b>
		cons_intr(serial_proc_data);
  80042007a3:	48 bf 48 07 20 04 80 	movabs $0x8004200748,%rdi
  80042007aa:	00 00 00 
  80042007ad:	48 b8 36 10 20 04 80 	movabs $0x8004201036,%rax
  80042007b4:	00 00 00 
  80042007b7:	ff d0                	callq  *%rax
}
  80042007b9:	90                   	nop
  80042007ba:	5d                   	pop    %rbp
  80042007bb:	c3                   	retq   

00000080042007bc <serial_putc>:

static void
serial_putc(int c)
{
  80042007bc:	55                   	push   %rbp
  80042007bd:	48 89 e5             	mov    %rsp,%rbp
  80042007c0:	48 83 ec 18          	sub    $0x18,%rsp
  80042007c4:	89 7d ec             	mov    %edi,-0x14(%rbp)
	int i;

	for (i = 0;
  80042007c7:	c7 45 fc 00 00 00 00 	movl   $0x0,-0x4(%rbp)
  80042007ce:	eb 10                	jmp    80042007e0 <serial_putc+0x24>
	     !(inb(COM1 + COM_LSR) & COM_LSR_TXRDY) && i < 12800;
	     i++)
		delay();
  80042007d0:	48 b8 fd 06 20 04 80 	movabs $0x80042006fd,%rax
  80042007d7:	00 00 00 
  80042007da:	ff d0                	callq  *%rax
{
	int i;

	for (i = 0;
	     !(inb(COM1 + COM_LSR) & COM_LSR_TXRDY) && i < 12800;
	     i++)
  80042007dc:	83 45 fc 01          	addl   $0x1,-0x4(%rbp)
  80042007e0:	c7 45 f4 fd 03 00 00 	movl   $0x3fd,-0xc(%rbp)

static __inline uint8_t
inb(int port)
{
	uint8_t data;
	__asm __volatile("inb %w1,%0" : "=a" (data) : "d" (port));
  80042007e7:	8b 45 f4             	mov    -0xc(%rbp),%eax
  80042007ea:	89 c2                	mov    %eax,%edx
  80042007ec:	ec                   	in     (%dx),%al
  80042007ed:	88 45 f3             	mov    %al,-0xd(%rbp)
	return data;
  80042007f0:	0f b6 45 f3          	movzbl -0xd(%rbp),%eax
serial_putc(int c)
{
	int i;

	for (i = 0;
	     !(inb(COM1 + COM_LSR) & COM_LSR_TXRDY) && i < 12800;
  80042007f4:	0f b6 c0             	movzbl %al,%eax
  80042007f7:	83 e0 20             	and    $0x20,%eax
static void
serial_putc(int c)
{
	int i;

	for (i = 0;
  80042007fa:	85 c0                	test   %eax,%eax
  80042007fc:	75 09                	jne    8004200807 <serial_putc+0x4b>
	     !(inb(COM1 + COM_LSR) & COM_LSR_TXRDY) && i < 12800;
  80042007fe:	81 7d fc ff 31 00 00 	cmpl   $0x31ff,-0x4(%rbp)
  8004200805:	7e c9                	jle    80042007d0 <serial_putc+0x14>
	     i++)
		delay();

	outb(COM1 + COM_TX, c);
  8004200807:	8b 45 ec             	mov    -0x14(%rbp),%eax
  800420080a:	0f b6 c0             	movzbl %al,%eax
  800420080d:	c7 45 f8 f8 03 00 00 	movl   $0x3f8,-0x8(%rbp)
  8004200814:	88 45 f2             	mov    %al,-0xe(%rbp)
}

static __inline void
outb(int port, uint8_t data)
{
	__asm __volatile("outb %0,%w1" : : "a" (data), "d" (port));
  8004200817:	0f b6 45 f2          	movzbl -0xe(%rbp),%eax
  800420081b:	8b 55 f8             	mov    -0x8(%rbp),%edx
  800420081e:	ee                   	out    %al,(%dx)
}
  800420081f:	90                   	nop
  8004200820:	c9                   	leaveq 
  8004200821:	c3                   	retq   

0000008004200822 <serial_init>:

static void
serial_init(void)
{
  8004200822:	55                   	push   %rbp
  8004200823:	48 89 e5             	mov    %rsp,%rbp
  8004200826:	48 83 ec 40          	sub    $0x40,%rsp
  800420082a:	c7 45 fc fa 03 00 00 	movl   $0x3fa,-0x4(%rbp)
  8004200831:	c6 45 ce 00          	movb   $0x0,-0x32(%rbp)
  8004200835:	0f b6 45 ce          	movzbl -0x32(%rbp),%eax
  8004200839:	8b 55 fc             	mov    -0x4(%rbp),%edx
  800420083c:	ee                   	out    %al,(%dx)
  800420083d:	c7 45 f8 fb 03 00 00 	movl   $0x3fb,-0x8(%rbp)
  8004200844:	c6 45 cf 80          	movb   $0x80,-0x31(%rbp)
  8004200848:	0f b6 45 cf          	movzbl -0x31(%rbp),%eax
  800420084c:	8b 55 f8             	mov    -0x8(%rbp),%edx
  800420084f:	ee                   	out    %al,(%dx)
  8004200850:	c7 45 f4 f8 03 00 00 	movl   $0x3f8,-0xc(%rbp)
  8004200857:	c6 45 d0 0c          	movb   $0xc,-0x30(%rbp)
  800420085b:	0f b6 45 d0          	movzbl -0x30(%rbp),%eax
  800420085f:	8b 55 f4             	mov    -0xc(%rbp),%edx
  8004200862:	ee                   	out    %al,(%dx)
  8004200863:	c7 45 f0 f9 03 00 00 	movl   $0x3f9,-0x10(%rbp)
  800420086a:	c6 45 d1 00          	movb   $0x0,-0x2f(%rbp)
  800420086e:	0f b6 45 d1          	movzbl -0x2f(%rbp),%eax
  8004200872:	8b 55 f0             	mov    -0x10(%rbp),%edx
  8004200875:	ee                   	out    %al,(%dx)
  8004200876:	c7 45 ec fb 03 00 00 	movl   $0x3fb,-0x14(%rbp)
  800420087d:	c6 45 d2 03          	movb   $0x3,-0x2e(%rbp)
  8004200881:	0f b6 45 d2          	movzbl -0x2e(%rbp),%eax
  8004200885:	8b 55 ec             	mov    -0x14(%rbp),%edx
  8004200888:	ee                   	out    %al,(%dx)
  8004200889:	c7 45 e8 fc 03 00 00 	movl   $0x3fc,-0x18(%rbp)
  8004200890:	c6 45 d3 00          	movb   $0x0,-0x2d(%rbp)
  8004200894:	0f b6 45 d3          	movzbl -0x2d(%rbp),%eax
  8004200898:	8b 55 e8             	mov    -0x18(%rbp),%edx
  800420089b:	ee                   	out    %al,(%dx)
  800420089c:	c7 45 e4 f9 03 00 00 	movl   $0x3f9,-0x1c(%rbp)
  80042008a3:	c6 45 d4 01          	movb   $0x1,-0x2c(%rbp)
  80042008a7:	0f b6 45 d4          	movzbl -0x2c(%rbp),%eax
  80042008ab:	8b 55 e4             	mov    -0x1c(%rbp),%edx
  80042008ae:	ee                   	out    %al,(%dx)
  80042008af:	c7 45 e0 fd 03 00 00 	movl   $0x3fd,-0x20(%rbp)

static __inline uint8_t
inb(int port)
{
	uint8_t data;
	__asm __volatile("inb %w1,%0" : "=a" (data) : "d" (port));
  80042008b6:	8b 45 e0             	mov    -0x20(%rbp),%eax
  80042008b9:	89 c2                	mov    %eax,%edx
  80042008bb:	ec                   	in     (%dx),%al
  80042008bc:	88 45 d5             	mov    %al,-0x2b(%rbp)
	return data;
  80042008bf:	0f b6 45 d5          	movzbl -0x2b(%rbp),%eax
	// Enable rcv interrupts
	outb(COM1+COM_IER, COM_IER_RDI);

	// Clear any preexisting overrun indications and interrupts
	// Serial port doesn't exist if COM_LSR returns 0xFF
	serial_exists = (inb(COM1+COM_LSR) != 0xFF);
  80042008c3:	3c ff                	cmp    $0xff,%al
  80042008c5:	0f 95 c2             	setne  %dl
  80042008c8:	48 b8 00 00 4e 04 80 	movabs $0x80044e0000,%rax
  80042008cf:	00 00 00 
  80042008d2:	88 10                	mov    %dl,(%rax)
  80042008d4:	c7 45 dc fa 03 00 00 	movl   $0x3fa,-0x24(%rbp)

static __inline uint8_t
inb(int port)
{
	uint8_t data;
	__asm __volatile("inb %w1,%0" : "=a" (data) : "d" (port));
  80042008db:	8b 45 dc             	mov    -0x24(%rbp),%eax
  80042008de:	89 c2                	mov    %eax,%edx
  80042008e0:	ec                   	in     (%dx),%al
  80042008e1:	88 45 d6             	mov    %al,-0x2a(%rbp)
  80042008e4:	c7 45 d8 f8 03 00 00 	movl   $0x3f8,-0x28(%rbp)
  80042008eb:	8b 45 d8             	mov    -0x28(%rbp),%eax
  80042008ee:	89 c2                	mov    %eax,%edx
  80042008f0:	ec                   	in     (%dx),%al
  80042008f1:	88 45 d7             	mov    %al,-0x29(%rbp)
	(void) inb(COM1+COM_IIR);
	(void) inb(COM1+COM_RX);


	// Enable serial interrupts
	if (serial_exists)
  80042008f4:	48 b8 00 00 4e 04 80 	movabs $0x80044e0000,%rax
  80042008fb:	00 00 00 
  80042008fe:	0f b6 00             	movzbl (%rax),%eax
  8004200901:	84 c0                	test   %al,%al
  8004200903:	74 23                	je     8004200928 <serial_init+0x106>
		irq_setmask_8259A(irq_mask_8259A & ~(1<<4));
  8004200905:	48 b8 72 66 23 04 80 	movabs $0x8004236672,%rax
  800420090c:	00 00 00 
  800420090f:	0f b7 00             	movzwl (%rax),%eax
  8004200912:	0f b7 c0             	movzwl %ax,%eax
  8004200915:	25 ef ff 00 00       	and    $0xffef,%eax
  800420091a:	89 c7                	mov    %eax,%edi
  800420091c:	48 b8 39 9b 20 04 80 	movabs $0x8004209b39,%rax
  8004200923:	00 00 00 
  8004200926:	ff d0                	callq  *%rax

}
  8004200928:	90                   	nop
  8004200929:	c9                   	leaveq 
  800420092a:	c3                   	retq   

000000800420092b <lpt_putc>:
// For information on PC parallel port programming, see the class References
// page.

static void
lpt_putc(int c)
{
  800420092b:	55                   	push   %rbp
  800420092c:	48 89 e5             	mov    %rsp,%rbp
  800420092f:	48 83 ec 28          	sub    $0x28,%rsp
  8004200933:	89 7d dc             	mov    %edi,-0x24(%rbp)
	int i;

	for (i = 0; !(inb(0x378+1) & 0x80) && i < 12800; i++)
  8004200936:	c7 45 fc 00 00 00 00 	movl   $0x0,-0x4(%rbp)
  800420093d:	eb 10                	jmp    800420094f <lpt_putc+0x24>
		delay();
  800420093f:	48 b8 fd 06 20 04 80 	movabs $0x80042006fd,%rax
  8004200946:	00 00 00 
  8004200949:	ff d0                	callq  *%rax
static void
lpt_putc(int c)
{
	int i;

	for (i = 0; !(inb(0x378+1) & 0x80) && i < 12800; i++)
  800420094b:	83 45 fc 01          	addl   $0x1,-0x4(%rbp)
  800420094f:	c7 45 ec 79 03 00 00 	movl   $0x379,-0x14(%rbp)
  8004200956:	8b 45 ec             	mov    -0x14(%rbp),%eax
  8004200959:	89 c2                	mov    %eax,%edx
  800420095b:	ec                   	in     (%dx),%al
  800420095c:	88 45 eb             	mov    %al,-0x15(%rbp)
	return data;
  800420095f:	0f b6 45 eb          	movzbl -0x15(%rbp),%eax
  8004200963:	84 c0                	test   %al,%al
  8004200965:	78 09                	js     8004200970 <lpt_putc+0x45>
  8004200967:	81 7d fc ff 31 00 00 	cmpl   $0x31ff,-0x4(%rbp)
  800420096e:	7e cf                	jle    800420093f <lpt_putc+0x14>
		delay();
	outb(0x378+0, c);
  8004200970:	8b 45 dc             	mov    -0x24(%rbp),%eax
  8004200973:	0f b6 c0             	movzbl %al,%eax
  8004200976:	c7 45 f4 78 03 00 00 	movl   $0x378,-0xc(%rbp)
  800420097d:	88 45 e8             	mov    %al,-0x18(%rbp)
}

static __inline void
outb(int port, uint8_t data)
{
	__asm __volatile("outb %0,%w1" : : "a" (data), "d" (port));
  8004200980:	0f b6 45 e8          	movzbl -0x18(%rbp),%eax
  8004200984:	8b 55 f4             	mov    -0xc(%rbp),%edx
  8004200987:	ee                   	out    %al,(%dx)
  8004200988:	c7 45 f0 7a 03 00 00 	movl   $0x37a,-0x10(%rbp)
  800420098f:	c6 45 e9 0d          	movb   $0xd,-0x17(%rbp)
  8004200993:	0f b6 45 e9          	movzbl -0x17(%rbp),%eax
  8004200997:	8b 55 f0             	mov    -0x10(%rbp),%edx
  800420099a:	ee                   	out    %al,(%dx)
  800420099b:	c7 45 f8 7a 03 00 00 	movl   $0x37a,-0x8(%rbp)
  80042009a2:	c6 45 ea 08          	movb   $0x8,-0x16(%rbp)
  80042009a6:	0f b6 45 ea          	movzbl -0x16(%rbp),%eax
  80042009aa:	8b 55 f8             	mov    -0x8(%rbp),%edx
  80042009ad:	ee                   	out    %al,(%dx)
	outb(0x378+2, 0x08|0x04|0x01);
	outb(0x378+2, 0x08);
}
  80042009ae:	90                   	nop
  80042009af:	c9                   	leaveq 
  80042009b0:	c3                   	retq   

00000080042009b1 <cga_init>:
static uint16_t crt_pos;


static void
cga_init(void)
{
  80042009b1:	55                   	push   %rbp
  80042009b2:	48 89 e5             	mov    %rsp,%rbp
  80042009b5:	48 83 ec 30          	sub    $0x30,%rsp
	volatile uint16_t *cp;
	uint16_t was;
	unsigned pos;

	cp = (uint16_t*) (KERNBASE + CGA_BUF);
  80042009b9:	48 b8 00 80 0b 04 80 	movabs $0x80040b8000,%rax
  80042009c0:	00 00 00 
  80042009c3:	48 89 45 f8          	mov    %rax,-0x8(%rbp)
	was = *cp;
  80042009c7:	48 8b 45 f8          	mov    -0x8(%rbp),%rax
  80042009cb:	0f b7 00             	movzwl (%rax),%eax
  80042009ce:	66 89 45 f6          	mov    %ax,-0xa(%rbp)
	*cp = (uint16_t) 0xA55A;
  80042009d2:	48 8b 45 f8          	mov    -0x8(%rbp),%rax
  80042009d6:	66 c7 00 5a a5       	movw   $0xa55a,(%rax)
	if (*cp != 0xA55A) {
  80042009db:	48 8b 45 f8          	mov    -0x8(%rbp),%rax
  80042009df:	0f b7 00             	movzwl (%rax),%eax
  80042009e2:	66 3d 5a a5          	cmp    $0xa55a,%ax
  80042009e6:	74 20                	je     8004200a08 <cga_init+0x57>
		cp = (uint16_t*) (KERNBASE + MONO_BUF);
  80042009e8:	48 b8 00 00 0b 04 80 	movabs $0x80040b0000,%rax
  80042009ef:	00 00 00 
  80042009f2:	48 89 45 f8          	mov    %rax,-0x8(%rbp)
		addr_6845 = MONO_BASE;
  80042009f6:	48 b8 04 00 4e 04 80 	movabs $0x80044e0004,%rax
  80042009fd:	00 00 00 
  8004200a00:	c7 00 b4 03 00 00    	movl   $0x3b4,(%rax)
  8004200a06:	eb 1b                	jmp    8004200a23 <cga_init+0x72>
	} else {
		*cp = was;
  8004200a08:	48 8b 45 f8          	mov    -0x8(%rbp),%rax
  8004200a0c:	0f b7 55 f6          	movzwl -0xa(%rbp),%edx
  8004200a10:	66 89 10             	mov    %dx,(%rax)
		addr_6845 = CGA_BASE;
  8004200a13:	48 b8 04 00 4e 04 80 	movabs $0x80044e0004,%rax
  8004200a1a:	00 00 00 
  8004200a1d:	c7 00 d4 03 00 00    	movl   $0x3d4,(%rax)
	}

	/* Extract cursor location */
	outb(addr_6845, 14);
  8004200a23:	48 b8 04 00 4e 04 80 	movabs $0x80044e0004,%rax
  8004200a2a:	00 00 00 
  8004200a2d:	8b 00                	mov    (%rax),%eax
  8004200a2f:	89 45 f0             	mov    %eax,-0x10(%rbp)
  8004200a32:	c6 45 dc 0e          	movb   $0xe,-0x24(%rbp)
  8004200a36:	0f b6 45 dc          	movzbl -0x24(%rbp),%eax
  8004200a3a:	8b 55 f0             	mov    -0x10(%rbp),%edx
  8004200a3d:	ee                   	out    %al,(%dx)
	pos = inb(addr_6845 + 1) << 8;
  8004200a3e:	48 b8 04 00 4e 04 80 	movabs $0x80044e0004,%rax
  8004200a45:	00 00 00 
  8004200a48:	8b 00                	mov    (%rax),%eax
  8004200a4a:	83 c0 01             	add    $0x1,%eax
  8004200a4d:	89 45 e8             	mov    %eax,-0x18(%rbp)

static __inline uint8_t
inb(int port)
{
	uint8_t data;
	__asm __volatile("inb %w1,%0" : "=a" (data) : "d" (port));
  8004200a50:	8b 45 e8             	mov    -0x18(%rbp),%eax
  8004200a53:	89 c2                	mov    %eax,%edx
  8004200a55:	ec                   	in     (%dx),%al
  8004200a56:	88 45 dd             	mov    %al,-0x23(%rbp)
	return data;
  8004200a59:	0f b6 45 dd          	movzbl -0x23(%rbp),%eax
  8004200a5d:	0f b6 c0             	movzbl %al,%eax
  8004200a60:	c1 e0 08             	shl    $0x8,%eax
  8004200a63:	89 45 ec             	mov    %eax,-0x14(%rbp)
	outb(addr_6845, 15);
  8004200a66:	48 b8 04 00 4e 04 80 	movabs $0x80044e0004,%rax
  8004200a6d:	00 00 00 
  8004200a70:	8b 00                	mov    (%rax),%eax
  8004200a72:	89 45 e4             	mov    %eax,-0x1c(%rbp)
  8004200a75:	c6 45 de 0f          	movb   $0xf,-0x22(%rbp)
}

static __inline void
outb(int port, uint8_t data)
{
	__asm __volatile("outb %0,%w1" : : "a" (data), "d" (port));
  8004200a79:	0f b6 45 de          	movzbl -0x22(%rbp),%eax
  8004200a7d:	8b 55 e4             	mov    -0x1c(%rbp),%edx
  8004200a80:	ee                   	out    %al,(%dx)
	pos |= inb(addr_6845 + 1);
  8004200a81:	48 b8 04 00 4e 04 80 	movabs $0x80044e0004,%rax
  8004200a88:	00 00 00 
  8004200a8b:	8b 00                	mov    (%rax),%eax
  8004200a8d:	83 c0 01             	add    $0x1,%eax
  8004200a90:	89 45 e0             	mov    %eax,-0x20(%rbp)

static __inline uint8_t
inb(int port)
{
	uint8_t data;
	__asm __volatile("inb %w1,%0" : "=a" (data) : "d" (port));
  8004200a93:	8b 45 e0             	mov    -0x20(%rbp),%eax
  8004200a96:	89 c2                	mov    %eax,%edx
  8004200a98:	ec                   	in     (%dx),%al
  8004200a99:	88 45 df             	mov    %al,-0x21(%rbp)
	return data;
  8004200a9c:	0f b6 45 df          	movzbl -0x21(%rbp),%eax
  8004200aa0:	0f b6 c0             	movzbl %al,%eax
  8004200aa3:	09 45 ec             	or     %eax,-0x14(%rbp)

	crt_buf = (uint16_t*) cp;
  8004200aa6:	48 b8 08 00 4e 04 80 	movabs $0x80044e0008,%rax
  8004200aad:	00 00 00 
  8004200ab0:	48 8b 55 f8          	mov    -0x8(%rbp),%rdx
  8004200ab4:	48 89 10             	mov    %rdx,(%rax)
	crt_pos = pos;
  8004200ab7:	8b 45 ec             	mov    -0x14(%rbp),%eax
  8004200aba:	89 c2                	mov    %eax,%edx
  8004200abc:	48 b8 10 00 4e 04 80 	movabs $0x80044e0010,%rax
  8004200ac3:	00 00 00 
  8004200ac6:	66 89 10             	mov    %dx,(%rax)
}
  8004200ac9:	90                   	nop
  8004200aca:	c9                   	leaveq 
  8004200acb:	c3                   	retq   

0000008004200acc <cga_putc>:



static void
cga_putc(int c)
{
  8004200acc:	55                   	push   %rbp
  8004200acd:	48 89 e5             	mov    %rsp,%rbp
  8004200ad0:	48 83 ec 30          	sub    $0x30,%rsp
  8004200ad4:	89 7d dc             	mov    %edi,-0x24(%rbp)

	// if no attribute given, then use black on white
	if (!(c & ~0xFF))
  8004200ad7:	8b 45 dc             	mov    -0x24(%rbp),%eax
  8004200ada:	b0 00                	mov    $0x0,%al
  8004200adc:	85 c0                	test   %eax,%eax
  8004200ade:	75 07                	jne    8004200ae7 <cga_putc+0x1b>
		c |= 0x0700;
  8004200ae0:	81 4d dc 00 07 00 00 	orl    $0x700,-0x24(%rbp)

	switch (c & 0xff) {
  8004200ae7:	8b 45 dc             	mov    -0x24(%rbp),%eax
  8004200aea:	0f b6 c0             	movzbl %al,%eax
  8004200aed:	83 f8 09             	cmp    $0x9,%eax
  8004200af0:	0f 84 f5 00 00 00    	je     8004200beb <cga_putc+0x11f>
  8004200af6:	83 f8 09             	cmp    $0x9,%eax
  8004200af9:	7f 0a                	jg     8004200b05 <cga_putc+0x39>
  8004200afb:	83 f8 08             	cmp    $0x8,%eax
  8004200afe:	74 18                	je     8004200b18 <cga_putc+0x4c>
  8004200b00:	e9 3d 01 00 00       	jmpq   8004200c42 <cga_putc+0x176>
  8004200b05:	83 f8 0a             	cmp    $0xa,%eax
  8004200b08:	74 74                	je     8004200b7e <cga_putc+0xb2>
  8004200b0a:	83 f8 0d             	cmp    $0xd,%eax
  8004200b0d:	0f 84 88 00 00 00    	je     8004200b9b <cga_putc+0xcf>
  8004200b13:	e9 2a 01 00 00       	jmpq   8004200c42 <cga_putc+0x176>
	case '\b':
		if (crt_pos > 0) {
  8004200b18:	48 b8 10 00 4e 04 80 	movabs $0x80044e0010,%rax
  8004200b1f:	00 00 00 
  8004200b22:	0f b7 00             	movzwl (%rax),%eax
  8004200b25:	66 85 c0             	test   %ax,%ax
  8004200b28:	0f 84 4f 01 00 00    	je     8004200c7d <cga_putc+0x1b1>
			crt_pos--;
  8004200b2e:	48 b8 10 00 4e 04 80 	movabs $0x80044e0010,%rax
  8004200b35:	00 00 00 
  8004200b38:	0f b7 00             	movzwl (%rax),%eax
  8004200b3b:	8d 50 ff             	lea    -0x1(%rax),%edx
  8004200b3e:	48 b8 10 00 4e 04 80 	movabs $0x80044e0010,%rax
  8004200b45:	00 00 00 
  8004200b48:	66 89 10             	mov    %dx,(%rax)
			crt_buf[crt_pos] = (c & ~0xff) | ' ';
  8004200b4b:	48 b8 08 00 4e 04 80 	movabs $0x80044e0008,%rax
  8004200b52:	00 00 00 
  8004200b55:	48 8b 10             	mov    (%rax),%rdx
  8004200b58:	48 b8 10 00 4e 04 80 	movabs $0x80044e0010,%rax
  8004200b5f:	00 00 00 
  8004200b62:	0f b7 00             	movzwl (%rax),%eax
  8004200b65:	0f b7 c0             	movzwl %ax,%eax
  8004200b68:	48 01 c0             	add    %rax,%rax
  8004200b6b:	48 01 d0             	add    %rdx,%rax
  8004200b6e:	8b 55 dc             	mov    -0x24(%rbp),%edx
  8004200b71:	b2 00                	mov    $0x0,%dl
  8004200b73:	83 ca 20             	or     $0x20,%edx
  8004200b76:	66 89 10             	mov    %dx,(%rax)
		}
		break;
  8004200b79:	e9 ff 00 00 00       	jmpq   8004200c7d <cga_putc+0x1b1>
	case '\n':
		crt_pos += CRT_COLS;
  8004200b7e:	48 b8 10 00 4e 04 80 	movabs $0x80044e0010,%rax
  8004200b85:	00 00 00 
  8004200b88:	0f b7 00             	movzwl (%rax),%eax
  8004200b8b:	8d 50 50             	lea    0x50(%rax),%edx
  8004200b8e:	48 b8 10 00 4e 04 80 	movabs $0x80044e0010,%rax
  8004200b95:	00 00 00 
  8004200b98:	66 89 10             	mov    %dx,(%rax)
		/* fallthru */
	case '\r':
		crt_pos -= (crt_pos % CRT_COLS);
  8004200b9b:	48 b8 10 00 4e 04 80 	movabs $0x80044e0010,%rax
  8004200ba2:	00 00 00 
  8004200ba5:	0f b7 30             	movzwl (%rax),%esi
  8004200ba8:	48 b8 10 00 4e 04 80 	movabs $0x80044e0010,%rax
  8004200baf:	00 00 00 
  8004200bb2:	0f b7 08             	movzwl (%rax),%ecx
  8004200bb5:	0f b7 c1             	movzwl %cx,%eax
  8004200bb8:	69 c0 cd cc 00 00    	imul   $0xcccd,%eax,%eax
  8004200bbe:	c1 e8 10             	shr    $0x10,%eax
  8004200bc1:	89 c2                	mov    %eax,%edx
  8004200bc3:	66 c1 ea 06          	shr    $0x6,%dx
  8004200bc7:	89 d0                	mov    %edx,%eax
  8004200bc9:	c1 e0 02             	shl    $0x2,%eax
  8004200bcc:	01 d0                	add    %edx,%eax
  8004200bce:	c1 e0 04             	shl    $0x4,%eax
  8004200bd1:	29 c1                	sub    %eax,%ecx
  8004200bd3:	89 ca                	mov    %ecx,%edx
  8004200bd5:	29 d6                	sub    %edx,%esi
  8004200bd7:	89 f2                	mov    %esi,%edx
  8004200bd9:	48 b8 10 00 4e 04 80 	movabs $0x80044e0010,%rax
  8004200be0:	00 00 00 
  8004200be3:	66 89 10             	mov    %dx,(%rax)
		break;
  8004200be6:	e9 93 00 00 00       	jmpq   8004200c7e <cga_putc+0x1b2>
	case '\t':
		cons_putc(' ');
  8004200beb:	bf 20 00 00 00       	mov    $0x20,%edi
  8004200bf0:	48 b8 74 11 20 04 80 	movabs $0x8004201174,%rax
  8004200bf7:	00 00 00 
  8004200bfa:	ff d0                	callq  *%rax
		cons_putc(' ');
  8004200bfc:	bf 20 00 00 00       	mov    $0x20,%edi
  8004200c01:	48 b8 74 11 20 04 80 	movabs $0x8004201174,%rax
  8004200c08:	00 00 00 
  8004200c0b:	ff d0                	callq  *%rax
		cons_putc(' ');
  8004200c0d:	bf 20 00 00 00       	mov    $0x20,%edi
  8004200c12:	48 b8 74 11 20 04 80 	movabs $0x8004201174,%rax
  8004200c19:	00 00 00 
  8004200c1c:	ff d0                	callq  *%rax
		cons_putc(' ');
  8004200c1e:	bf 20 00 00 00       	mov    $0x20,%edi
  8004200c23:	48 b8 74 11 20 04 80 	movabs $0x8004201174,%rax
  8004200c2a:	00 00 00 
  8004200c2d:	ff d0                	callq  *%rax
		cons_putc(' ');
  8004200c2f:	bf 20 00 00 00       	mov    $0x20,%edi
  8004200c34:	48 b8 74 11 20 04 80 	movabs $0x8004201174,%rax
  8004200c3b:	00 00 00 
  8004200c3e:	ff d0                	callq  *%rax
		break;
  8004200c40:	eb 3c                	jmp    8004200c7e <cga_putc+0x1b2>
	default:
		crt_buf[crt_pos++] = c;		/* write the character */
  8004200c42:	48 b8 08 00 4e 04 80 	movabs $0x80044e0008,%rax
  8004200c49:	00 00 00 
  8004200c4c:	48 8b 30             	mov    (%rax),%rsi
  8004200c4f:	48 b8 10 00 4e 04 80 	movabs $0x80044e0010,%rax
  8004200c56:	00 00 00 
  8004200c59:	0f b7 00             	movzwl (%rax),%eax
  8004200c5c:	8d 48 01             	lea    0x1(%rax),%ecx
  8004200c5f:	48 ba 10 00 4e 04 80 	movabs $0x80044e0010,%rdx
  8004200c66:	00 00 00 
  8004200c69:	66 89 0a             	mov    %cx,(%rdx)
  8004200c6c:	0f b7 c0             	movzwl %ax,%eax
  8004200c6f:	48 01 c0             	add    %rax,%rax
  8004200c72:	48 01 f0             	add    %rsi,%rax
  8004200c75:	8b 55 dc             	mov    -0x24(%rbp),%edx
  8004200c78:	66 89 10             	mov    %dx,(%rax)
		break;
  8004200c7b:	eb 01                	jmp    8004200c7e <cga_putc+0x1b2>
	case '\b':
		if (crt_pos > 0) {
			crt_pos--;
			crt_buf[crt_pos] = (c & ~0xff) | ' ';
		}
		break;
  8004200c7d:	90                   	nop
	}


	/* scroll if necessary */

	if (crt_pos >= CRT_SIZE) {
  8004200c7e:	48 b8 10 00 4e 04 80 	movabs $0x80044e0010,%rax
  8004200c85:	00 00 00 
  8004200c88:	0f b7 00             	movzwl (%rax),%eax
  8004200c8b:	66 3d cf 07          	cmp    $0x7cf,%ax
  8004200c8f:	0f 86 89 00 00 00    	jbe    8004200d1e <cga_putc+0x252>
		int i;


		memmove(crt_buf, crt_buf + CRT_COLS, (CRT_SIZE - CRT_COLS) * sizeof(uint16_t));
  8004200c95:	48 b8 08 00 4e 04 80 	movabs $0x80044e0008,%rax
  8004200c9c:	00 00 00 
  8004200c9f:	48 8b 00             	mov    (%rax),%rax
  8004200ca2:	48 8d 88 a0 00 00 00 	lea    0xa0(%rax),%rcx
  8004200ca9:	48 b8 08 00 4e 04 80 	movabs $0x80044e0008,%rax
  8004200cb0:	00 00 00 
  8004200cb3:	48 8b 00             	mov    (%rax),%rax
  8004200cb6:	ba 00 0f 00 00       	mov    $0xf00,%edx
  8004200cbb:	48 89 ce             	mov    %rcx,%rsi
  8004200cbe:	48 89 c7             	mov    %rax,%rdi
  8004200cc1:	48 b8 44 12 21 04 80 	movabs $0x8004211244,%rax
  8004200cc8:	00 00 00 
  8004200ccb:	ff d0                	callq  *%rax
		for (i = CRT_SIZE - CRT_COLS; i < CRT_SIZE; i++)
  8004200ccd:	c7 45 fc 80 07 00 00 	movl   $0x780,-0x4(%rbp)
  8004200cd4:	eb 22                	jmp    8004200cf8 <cga_putc+0x22c>
			crt_buf[i] = 0x0700 | ' ';
  8004200cd6:	48 b8 08 00 4e 04 80 	movabs $0x80044e0008,%rax
  8004200cdd:	00 00 00 
  8004200ce0:	48 8b 00             	mov    (%rax),%rax
  8004200ce3:	8b 55 fc             	mov    -0x4(%rbp),%edx
  8004200ce6:	48 63 d2             	movslq %edx,%rdx
  8004200ce9:	48 01 d2             	add    %rdx,%rdx
  8004200cec:	48 01 d0             	add    %rdx,%rax
  8004200cef:	66 c7 00 20 07       	movw   $0x720,(%rax)
	if (crt_pos >= CRT_SIZE) {
		int i;


		memmove(crt_buf, crt_buf + CRT_COLS, (CRT_SIZE - CRT_COLS) * sizeof(uint16_t));
		for (i = CRT_SIZE - CRT_COLS; i < CRT_SIZE; i++)
  8004200cf4:	83 45 fc 01          	addl   $0x1,-0x4(%rbp)
  8004200cf8:	81 7d fc cf 07 00 00 	cmpl   $0x7cf,-0x4(%rbp)
  8004200cff:	7e d5                	jle    8004200cd6 <cga_putc+0x20a>
			crt_buf[i] = 0x0700 | ' ';
		crt_pos -= CRT_COLS;
  8004200d01:	48 b8 10 00 4e 04 80 	movabs $0x80044e0010,%rax
  8004200d08:	00 00 00 
  8004200d0b:	0f b7 00             	movzwl (%rax),%eax
  8004200d0e:	8d 50 b0             	lea    -0x50(%rax),%edx
  8004200d11:	48 b8 10 00 4e 04 80 	movabs $0x80044e0010,%rax
  8004200d18:	00 00 00 
  8004200d1b:	66 89 10             	mov    %dx,(%rax)
	}

	/* move that little blinky thing */
	outb(addr_6845, 14);
  8004200d1e:	48 b8 04 00 4e 04 80 	movabs $0x80044e0004,%rax
  8004200d25:	00 00 00 
  8004200d28:	8b 00                	mov    (%rax),%eax
  8004200d2a:	89 45 f8             	mov    %eax,-0x8(%rbp)
  8004200d2d:	c6 45 e8 0e          	movb   $0xe,-0x18(%rbp)
}

static __inline void
outb(int port, uint8_t data)
{
	__asm __volatile("outb %0,%w1" : : "a" (data), "d" (port));
  8004200d31:	0f b6 45 e8          	movzbl -0x18(%rbp),%eax
  8004200d35:	8b 55 f8             	mov    -0x8(%rbp),%edx
  8004200d38:	ee                   	out    %al,(%dx)
	outb(addr_6845 + 1, crt_pos >> 8);
  8004200d39:	48 b8 10 00 4e 04 80 	movabs $0x80044e0010,%rax
  8004200d40:	00 00 00 
  8004200d43:	0f b7 00             	movzwl (%rax),%eax
  8004200d46:	66 c1 e8 08          	shr    $0x8,%ax
  8004200d4a:	0f b6 c0             	movzbl %al,%eax
  8004200d4d:	48 ba 04 00 4e 04 80 	movabs $0x80044e0004,%rdx
  8004200d54:	00 00 00 
  8004200d57:	8b 12                	mov    (%rdx),%edx
  8004200d59:	83 c2 01             	add    $0x1,%edx
  8004200d5c:	89 55 f4             	mov    %edx,-0xc(%rbp)
  8004200d5f:	88 45 e9             	mov    %al,-0x17(%rbp)
  8004200d62:	0f b6 45 e9          	movzbl -0x17(%rbp),%eax
  8004200d66:	8b 55 f4             	mov    -0xc(%rbp),%edx
  8004200d69:	ee                   	out    %al,(%dx)
	outb(addr_6845, 15);
  8004200d6a:	48 b8 04 00 4e 04 80 	movabs $0x80044e0004,%rax
  8004200d71:	00 00 00 
  8004200d74:	8b 00                	mov    (%rax),%eax
  8004200d76:	89 45 f0             	mov    %eax,-0x10(%rbp)
  8004200d79:	c6 45 ea 0f          	movb   $0xf,-0x16(%rbp)
  8004200d7d:	0f b6 45 ea          	movzbl -0x16(%rbp),%eax
  8004200d81:	8b 55 f0             	mov    -0x10(%rbp),%edx
  8004200d84:	ee                   	out    %al,(%dx)
	outb(addr_6845 + 1, crt_pos);
  8004200d85:	48 b8 10 00 4e 04 80 	movabs $0x80044e0010,%rax
  8004200d8c:	00 00 00 
  8004200d8f:	0f b7 00             	movzwl (%rax),%eax
  8004200d92:	0f b6 c0             	movzbl %al,%eax
  8004200d95:	48 ba 04 00 4e 04 80 	movabs $0x80044e0004,%rdx
  8004200d9c:	00 00 00 
  8004200d9f:	8b 12                	mov    (%rdx),%edx
  8004200da1:	83 c2 01             	add    $0x1,%edx
  8004200da4:	89 55 ec             	mov    %edx,-0x14(%rbp)
  8004200da7:	88 45 eb             	mov    %al,-0x15(%rbp)
  8004200daa:	0f b6 45 eb          	movzbl -0x15(%rbp),%eax
  8004200dae:	8b 55 ec             	mov    -0x14(%rbp),%edx
  8004200db1:	ee                   	out    %al,(%dx)
}
  8004200db2:	90                   	nop
  8004200db3:	c9                   	leaveq 
  8004200db4:	c3                   	retq   

0000008004200db5 <kbd_proc_data>:
 * Get data from the keyboard.  If we finish a character, return it.  Else 0.
 * Return -1 if no data.
 */
static int
kbd_proc_data(void)
{
  8004200db5:	55                   	push   %rbp
  8004200db6:	48 89 e5             	mov    %rsp,%rbp
  8004200db9:	48 83 ec 20          	sub    $0x20,%rsp
  8004200dbd:	c7 45 ec 64 00 00 00 	movl   $0x64,-0x14(%rbp)

static __inline uint8_t
inb(int port)
{
	uint8_t data;
	__asm __volatile("inb %w1,%0" : "=a" (data) : "d" (port));
  8004200dc4:	8b 45 ec             	mov    -0x14(%rbp),%eax
  8004200dc7:	89 c2                	mov    %eax,%edx
  8004200dc9:	ec                   	in     (%dx),%al
  8004200dca:	88 45 eb             	mov    %al,-0x15(%rbp)
	return data;
  8004200dcd:	0f b6 45 eb          	movzbl -0x15(%rbp),%eax
	int c;
	uint8_t data;
	static uint32_t shift;
	int r;
	if ((inb(KBSTATP) & KBS_DIB) == 0)
  8004200dd1:	0f b6 c0             	movzbl %al,%eax
  8004200dd4:	83 e0 01             	and    $0x1,%eax
  8004200dd7:	85 c0                	test   %eax,%eax
  8004200dd9:	75 0a                	jne    8004200de5 <kbd_proc_data+0x30>
		return -1;
  8004200ddb:	b8 ff ff ff ff       	mov    $0xffffffff,%eax
  8004200de0:	e9 fc 01 00 00       	jmpq   8004200fe1 <kbd_proc_data+0x22c>
  8004200de5:	c7 45 f4 60 00 00 00 	movl   $0x60,-0xc(%rbp)

static __inline uint8_t
inb(int port)
{
	uint8_t data;
	__asm __volatile("inb %w1,%0" : "=a" (data) : "d" (port));
  8004200dec:	8b 45 f4             	mov    -0xc(%rbp),%eax
  8004200def:	89 c2                	mov    %eax,%edx
  8004200df1:	ec                   	in     (%dx),%al
  8004200df2:	88 45 ea             	mov    %al,-0x16(%rbp)
	return data;
  8004200df5:	0f b6 45 ea          	movzbl -0x16(%rbp),%eax

	data = inb(KBDATAP);
  8004200df9:	88 45 fb             	mov    %al,-0x5(%rbp)

	if (data == 0xE0) {
  8004200dfc:	80 7d fb e0          	cmpb   $0xe0,-0x5(%rbp)
  8004200e00:	75 27                	jne    8004200e29 <kbd_proc_data+0x74>
		// E0 escape character
		shift |= E0ESC;
  8004200e02:	48 b8 28 02 4e 04 80 	movabs $0x80044e0228,%rax
  8004200e09:	00 00 00 
  8004200e0c:	8b 00                	mov    (%rax),%eax
  8004200e0e:	83 c8 40             	or     $0x40,%eax
  8004200e11:	89 c2                	mov    %eax,%edx
  8004200e13:	48 b8 28 02 4e 04 80 	movabs $0x80044e0228,%rax
  8004200e1a:	00 00 00 
  8004200e1d:	89 10                	mov    %edx,(%rax)
		return 0;
  8004200e1f:	b8 00 00 00 00       	mov    $0x0,%eax
  8004200e24:	e9 b8 01 00 00       	jmpq   8004200fe1 <kbd_proc_data+0x22c>
	} else if (data & 0x80) {
  8004200e29:	0f b6 45 fb          	movzbl -0x5(%rbp),%eax
  8004200e2d:	84 c0                	test   %al,%al
  8004200e2f:	79 65                	jns    8004200e96 <kbd_proc_data+0xe1>
		// Key released
		data = (shift & E0ESC ? data : data & 0x7F);
  8004200e31:	48 b8 28 02 4e 04 80 	movabs $0x80044e0228,%rax
  8004200e38:	00 00 00 
  8004200e3b:	8b 00                	mov    (%rax),%eax
  8004200e3d:	83 e0 40             	and    $0x40,%eax
  8004200e40:	85 c0                	test   %eax,%eax
  8004200e42:	75 09                	jne    8004200e4d <kbd_proc_data+0x98>
  8004200e44:	0f b6 45 fb          	movzbl -0x5(%rbp),%eax
  8004200e48:	83 e0 7f             	and    $0x7f,%eax
  8004200e4b:	eb 04                	jmp    8004200e51 <kbd_proc_data+0x9c>
  8004200e4d:	0f b6 45 fb          	movzbl -0x5(%rbp),%eax
  8004200e51:	88 45 fb             	mov    %al,-0x5(%rbp)
		shift &= ~(shiftcode[data] | E0ESC);
  8004200e54:	0f b6 45 fb          	movzbl -0x5(%rbp),%eax
  8004200e58:	48 ba 60 60 23 04 80 	movabs $0x8004236060,%rdx
  8004200e5f:	00 00 00 
  8004200e62:	48 98                	cltq   
  8004200e64:	0f b6 04 02          	movzbl (%rdx,%rax,1),%eax
  8004200e68:	83 c8 40             	or     $0x40,%eax
  8004200e6b:	0f b6 c0             	movzbl %al,%eax
  8004200e6e:	f7 d0                	not    %eax
  8004200e70:	89 c2                	mov    %eax,%edx
  8004200e72:	48 b8 28 02 4e 04 80 	movabs $0x80044e0228,%rax
  8004200e79:	00 00 00 
  8004200e7c:	8b 00                	mov    (%rax),%eax
  8004200e7e:	21 c2                	and    %eax,%edx
  8004200e80:	48 b8 28 02 4e 04 80 	movabs $0x80044e0228,%rax
  8004200e87:	00 00 00 
  8004200e8a:	89 10                	mov    %edx,(%rax)
		return 0;
  8004200e8c:	b8 00 00 00 00       	mov    $0x0,%eax
  8004200e91:	e9 4b 01 00 00       	jmpq   8004200fe1 <kbd_proc_data+0x22c>
	} else if (shift & E0ESC) {
  8004200e96:	48 b8 28 02 4e 04 80 	movabs $0x80044e0228,%rax
  8004200e9d:	00 00 00 
  8004200ea0:	8b 00                	mov    (%rax),%eax
  8004200ea2:	83 e0 40             	and    $0x40,%eax
  8004200ea5:	85 c0                	test   %eax,%eax
  8004200ea7:	74 21                	je     8004200eca <kbd_proc_data+0x115>
		// Last character was an E0 escape; or with 0x80
		data |= 0x80;
  8004200ea9:	80 4d fb 80          	orb    $0x80,-0x5(%rbp)
		shift &= ~E0ESC;
  8004200ead:	48 b8 28 02 4e 04 80 	movabs $0x80044e0228,%rax
  8004200eb4:	00 00 00 
  8004200eb7:	8b 00                	mov    (%rax),%eax
  8004200eb9:	83 e0 bf             	and    $0xffffffbf,%eax
  8004200ebc:	89 c2                	mov    %eax,%edx
  8004200ebe:	48 b8 28 02 4e 04 80 	movabs $0x80044e0228,%rax
  8004200ec5:	00 00 00 
  8004200ec8:	89 10                	mov    %edx,(%rax)
	}

	shift |= shiftcode[data];
  8004200eca:	0f b6 45 fb          	movzbl -0x5(%rbp),%eax
  8004200ece:	48 ba 60 60 23 04 80 	movabs $0x8004236060,%rdx
  8004200ed5:	00 00 00 
  8004200ed8:	48 98                	cltq   
  8004200eda:	0f b6 04 02          	movzbl (%rdx,%rax,1),%eax
  8004200ede:	0f b6 d0             	movzbl %al,%edx
  8004200ee1:	48 b8 28 02 4e 04 80 	movabs $0x80044e0228,%rax
  8004200ee8:	00 00 00 
  8004200eeb:	8b 00                	mov    (%rax),%eax
  8004200eed:	09 c2                	or     %eax,%edx
  8004200eef:	48 b8 28 02 4e 04 80 	movabs $0x80044e0228,%rax
  8004200ef6:	00 00 00 
  8004200ef9:	89 10                	mov    %edx,(%rax)
	shift ^= togglecode[data];
  8004200efb:	0f b6 45 fb          	movzbl -0x5(%rbp),%eax
  8004200eff:	48 ba 60 61 23 04 80 	movabs $0x8004236160,%rdx
  8004200f06:	00 00 00 
  8004200f09:	48 98                	cltq   
  8004200f0b:	0f b6 04 02          	movzbl (%rdx,%rax,1),%eax
  8004200f0f:	0f b6 d0             	movzbl %al,%edx
  8004200f12:	48 b8 28 02 4e 04 80 	movabs $0x80044e0228,%rax
  8004200f19:	00 00 00 
  8004200f1c:	8b 00                	mov    (%rax),%eax
  8004200f1e:	31 c2                	xor    %eax,%edx
  8004200f20:	48 b8 28 02 4e 04 80 	movabs $0x80044e0228,%rax
  8004200f27:	00 00 00 
  8004200f2a:	89 10                	mov    %edx,(%rax)

	c = charcode[shift & (CTL | SHIFT)][data];
  8004200f2c:	48 b8 28 02 4e 04 80 	movabs $0x80044e0228,%rax
  8004200f33:	00 00 00 
  8004200f36:	8b 00                	mov    (%rax),%eax
  8004200f38:	83 e0 03             	and    $0x3,%eax
  8004200f3b:	89 c2                	mov    %eax,%edx
  8004200f3d:	48 b8 60 65 23 04 80 	movabs $0x8004236560,%rax
  8004200f44:	00 00 00 
  8004200f47:	89 d2                	mov    %edx,%edx
  8004200f49:	48 8b 14 d0          	mov    (%rax,%rdx,8),%rdx
  8004200f4d:	0f b6 45 fb          	movzbl -0x5(%rbp),%eax
  8004200f51:	48 01 d0             	add    %rdx,%rax
  8004200f54:	0f b6 00             	movzbl (%rax),%eax
  8004200f57:	0f b6 c0             	movzbl %al,%eax
  8004200f5a:	89 45 fc             	mov    %eax,-0x4(%rbp)
	if (shift & CAPSLOCK) {
  8004200f5d:	48 b8 28 02 4e 04 80 	movabs $0x80044e0228,%rax
  8004200f64:	00 00 00 
  8004200f67:	8b 00                	mov    (%rax),%eax
  8004200f69:	83 e0 08             	and    $0x8,%eax
  8004200f6c:	85 c0                	test   %eax,%eax
  8004200f6e:	74 22                	je     8004200f92 <kbd_proc_data+0x1dd>
		if ('a' <= c && c <= 'z')
  8004200f70:	83 7d fc 60          	cmpl   $0x60,-0x4(%rbp)
  8004200f74:	7e 0c                	jle    8004200f82 <kbd_proc_data+0x1cd>
  8004200f76:	83 7d fc 7a          	cmpl   $0x7a,-0x4(%rbp)
  8004200f7a:	7f 06                	jg     8004200f82 <kbd_proc_data+0x1cd>
			c += 'A' - 'a';
  8004200f7c:	83 6d fc 20          	subl   $0x20,-0x4(%rbp)
  8004200f80:	eb 10                	jmp    8004200f92 <kbd_proc_data+0x1dd>
		else if ('A' <= c && c <= 'Z')
  8004200f82:	83 7d fc 40          	cmpl   $0x40,-0x4(%rbp)
  8004200f86:	7e 0a                	jle    8004200f92 <kbd_proc_data+0x1dd>
  8004200f88:	83 7d fc 5a          	cmpl   $0x5a,-0x4(%rbp)
  8004200f8c:	7f 04                	jg     8004200f92 <kbd_proc_data+0x1dd>
			c += 'a' - 'A';
  8004200f8e:	83 45 fc 20          	addl   $0x20,-0x4(%rbp)
	}

	// Process special keys

	// Ctrl-Alt-Del: reboot
	if (!(~shift & (CTL | ALT)) && c == KEY_DEL) {
  8004200f92:	48 b8 28 02 4e 04 80 	movabs $0x80044e0228,%rax
  8004200f99:	00 00 00 
  8004200f9c:	8b 00                	mov    (%rax),%eax
  8004200f9e:	f7 d0                	not    %eax
  8004200fa0:	83 e0 06             	and    $0x6,%eax
  8004200fa3:	85 c0                	test   %eax,%eax
  8004200fa5:	75 37                	jne    8004200fde <kbd_proc_data+0x229>
  8004200fa7:	81 7d fc e9 00 00 00 	cmpl   $0xe9,-0x4(%rbp)
  8004200fae:	75 2e                	jne    8004200fde <kbd_proc_data+0x229>
		cprintf("Rebooting!\n");
  8004200fb0:	48 bf ae f0 21 04 80 	movabs $0x800421f0ae,%rdi
  8004200fb7:	00 00 00 
  8004200fba:	b8 00 00 00 00       	mov    $0x0,%eax
  8004200fbf:	48 ba eb 9c 20 04 80 	movabs $0x8004209ceb,%rdx
  8004200fc6:	00 00 00 
  8004200fc9:	ff d2                	callq  *%rdx
  8004200fcb:	c7 45 f0 92 00 00 00 	movl   $0x92,-0x10(%rbp)
  8004200fd2:	c6 45 e9 03          	movb   $0x3,-0x17(%rbp)
}

static __inline void
outb(int port, uint8_t data)
{
	__asm __volatile("outb %0,%w1" : : "a" (data), "d" (port));
  8004200fd6:	0f b6 45 e9          	movzbl -0x17(%rbp),%eax
  8004200fda:	8b 55 f0             	mov    -0x10(%rbp),%edx
  8004200fdd:	ee                   	out    %al,(%dx)
		cprintf("ESC pressed\n");
		asm("vmcall":"=a"(r): "0"(VMX_VMCALL_BACKTOHOST));
	}
#endif

	return c;
  8004200fde:	8b 45 fc             	mov    -0x4(%rbp),%eax
}
  8004200fe1:	c9                   	leaveq 
  8004200fe2:	c3                   	retq   

0000008004200fe3 <kbd_intr>:

void
kbd_intr(void)
{
  8004200fe3:	55                   	push   %rbp
  8004200fe4:	48 89 e5             	mov    %rsp,%rbp
	cons_intr(kbd_proc_data);
  8004200fe7:	48 bf b5 0d 20 04 80 	movabs $0x8004200db5,%rdi
  8004200fee:	00 00 00 
  8004200ff1:	48 b8 36 10 20 04 80 	movabs $0x8004201036,%rax
  8004200ff8:	00 00 00 
  8004200ffb:	ff d0                	callq  *%rax
}
  8004200ffd:	90                   	nop
  8004200ffe:	5d                   	pop    %rbp
  8004200fff:	c3                   	retq   

0000008004201000 <kbd_init>:

static void
kbd_init(void)
{
  8004201000:	55                   	push   %rbp
  8004201001:	48 89 e5             	mov    %rsp,%rbp

	// Drain the kbd buffer so that Bochs generates interrupts.
	kbd_intr();
  8004201004:	48 b8 e3 0f 20 04 80 	movabs $0x8004200fe3,%rax
  800420100b:	00 00 00 
  800420100e:	ff d0                	callq  *%rax
	irq_setmask_8259A(irq_mask_8259A & ~(1<<1));
  8004201010:	48 b8 72 66 23 04 80 	movabs $0x8004236672,%rax
  8004201017:	00 00 00 
  800420101a:	0f b7 00             	movzwl (%rax),%eax
  800420101d:	0f b7 c0             	movzwl %ax,%eax
  8004201020:	25 fd ff 00 00       	and    $0xfffd,%eax
  8004201025:	89 c7                	mov    %eax,%edi
  8004201027:	48 b8 39 9b 20 04 80 	movabs $0x8004209b39,%rax
  800420102e:	00 00 00 
  8004201031:	ff d0                	callq  *%rax

}
  8004201033:	90                   	nop
  8004201034:	5d                   	pop    %rbp
  8004201035:	c3                   	retq   

0000008004201036 <cons_intr>:

// called by device interrupt routines to feed input characters
// into the circular console input buffer.
static void
cons_intr(int (*proc)(void))
{
  8004201036:	55                   	push   %rbp
  8004201037:	48 89 e5             	mov    %rsp,%rbp
  800420103a:	48 83 ec 20          	sub    $0x20,%rsp
  800420103e:	48 89 7d e8          	mov    %rdi,-0x18(%rbp)
	int c;

	while ((c = (*proc)()) != -1) {
  8004201042:	eb 6a                	jmp    80042010ae <cons_intr+0x78>
		if (c == 0)
  8004201044:	83 7d fc 00          	cmpl   $0x0,-0x4(%rbp)
  8004201048:	75 02                	jne    800420104c <cons_intr+0x16>
			continue;
  800420104a:	eb 62                	jmp    80042010ae <cons_intr+0x78>
		cons.buf[cons.wpos++] = c;
  800420104c:	48 b8 20 00 4e 04 80 	movabs $0x80044e0020,%rax
  8004201053:	00 00 00 
  8004201056:	8b 80 04 02 00 00    	mov    0x204(%rax),%eax
  800420105c:	8d 48 01             	lea    0x1(%rax),%ecx
  800420105f:	48 ba 20 00 4e 04 80 	movabs $0x80044e0020,%rdx
  8004201066:	00 00 00 
  8004201069:	89 8a 04 02 00 00    	mov    %ecx,0x204(%rdx)
  800420106f:	8b 55 fc             	mov    -0x4(%rbp),%edx
  8004201072:	89 d1                	mov    %edx,%ecx
  8004201074:	48 ba 20 00 4e 04 80 	movabs $0x80044e0020,%rdx
  800420107b:	00 00 00 
  800420107e:	89 c0                	mov    %eax,%eax
  8004201080:	88 0c 02             	mov    %cl,(%rdx,%rax,1)
		if (cons.wpos == CONSBUFSIZE)
  8004201083:	48 b8 20 00 4e 04 80 	movabs $0x80044e0020,%rax
  800420108a:	00 00 00 
  800420108d:	8b 80 04 02 00 00    	mov    0x204(%rax),%eax
  8004201093:	3d 00 02 00 00       	cmp    $0x200,%eax
  8004201098:	75 14                	jne    80042010ae <cons_intr+0x78>
			cons.wpos = 0;
  800420109a:	48 b8 20 00 4e 04 80 	movabs $0x80044e0020,%rax
  80042010a1:	00 00 00 
  80042010a4:	c7 80 04 02 00 00 00 	movl   $0x0,0x204(%rax)
  80042010ab:	00 00 00 
static void
cons_intr(int (*proc)(void))
{
	int c;

	while ((c = (*proc)()) != -1) {
  80042010ae:	48 8b 45 e8          	mov    -0x18(%rbp),%rax
  80042010b2:	ff d0                	callq  *%rax
  80042010b4:	89 45 fc             	mov    %eax,-0x4(%rbp)
  80042010b7:	83 7d fc ff          	cmpl   $0xffffffff,-0x4(%rbp)
  80042010bb:	75 87                	jne    8004201044 <cons_intr+0xe>
			continue;
		cons.buf[cons.wpos++] = c;
		if (cons.wpos == CONSBUFSIZE)
			cons.wpos = 0;
	}
}
  80042010bd:	90                   	nop
  80042010be:	c9                   	leaveq 
  80042010bf:	c3                   	retq   

00000080042010c0 <cons_getc>:

// return the next input character from the console, or 0 if none waiting
int
cons_getc(void)
{
  80042010c0:	55                   	push   %rbp
  80042010c1:	48 89 e5             	mov    %rsp,%rbp
  80042010c4:	48 83 ec 10          	sub    $0x10,%rsp
	int c;

	// poll for any pending input characters,
	// so that this function works even when interrupts are disabled
	// (e.g., when called from the kernel monitor).
	serial_intr();
  80042010c8:	48 b8 8e 07 20 04 80 	movabs $0x800420078e,%rax
  80042010cf:	00 00 00 
  80042010d2:	ff d0                	callq  *%rax
	kbd_intr();
  80042010d4:	48 b8 e3 0f 20 04 80 	movabs $0x8004200fe3,%rax
  80042010db:	00 00 00 
  80042010de:	ff d0                	callq  *%rax

	// grab the next character from the input buffer.
	if (cons.rpos != cons.wpos) {
  80042010e0:	48 b8 20 00 4e 04 80 	movabs $0x80044e0020,%rax
  80042010e7:	00 00 00 
  80042010ea:	8b 90 00 02 00 00    	mov    0x200(%rax),%edx
  80042010f0:	48 b8 20 00 4e 04 80 	movabs $0x80044e0020,%rax
  80042010f7:	00 00 00 
  80042010fa:	8b 80 04 02 00 00    	mov    0x204(%rax),%eax
  8004201100:	39 c2                	cmp    %eax,%edx
  8004201102:	74 69                	je     800420116d <cons_getc+0xad>
		c = cons.buf[cons.rpos++];
  8004201104:	48 b8 20 00 4e 04 80 	movabs $0x80044e0020,%rax
  800420110b:	00 00 00 
  800420110e:	8b 80 00 02 00 00    	mov    0x200(%rax),%eax
  8004201114:	8d 48 01             	lea    0x1(%rax),%ecx
  8004201117:	48 ba 20 00 4e 04 80 	movabs $0x80044e0020,%rdx
  800420111e:	00 00 00 
  8004201121:	89 8a 00 02 00 00    	mov    %ecx,0x200(%rdx)
  8004201127:	48 ba 20 00 4e 04 80 	movabs $0x80044e0020,%rdx
  800420112e:	00 00 00 
  8004201131:	89 c0                	mov    %eax,%eax
  8004201133:	0f b6 04 02          	movzbl (%rdx,%rax,1),%eax
  8004201137:	0f b6 c0             	movzbl %al,%eax
  800420113a:	89 45 fc             	mov    %eax,-0x4(%rbp)
		if (cons.rpos == CONSBUFSIZE)
  800420113d:	48 b8 20 00 4e 04 80 	movabs $0x80044e0020,%rax
  8004201144:	00 00 00 
  8004201147:	8b 80 00 02 00 00    	mov    0x200(%rax),%eax
  800420114d:	3d 00 02 00 00       	cmp    $0x200,%eax
  8004201152:	75 14                	jne    8004201168 <cons_getc+0xa8>
			cons.rpos = 0;
  8004201154:	48 b8 20 00 4e 04 80 	movabs $0x80044e0020,%rax
  800420115b:	00 00 00 
  800420115e:	c7 80 00 02 00 00 00 	movl   $0x0,0x200(%rax)
  8004201165:	00 00 00 
		return c;
  8004201168:	8b 45 fc             	mov    -0x4(%rbp),%eax
  800420116b:	eb 05                	jmp    8004201172 <cons_getc+0xb2>
	}
	return 0;
  800420116d:	b8 00 00 00 00       	mov    $0x0,%eax
}
  8004201172:	c9                   	leaveq 
  8004201173:	c3                   	retq   

0000008004201174 <cons_putc>:

// output a character to the console
static void
cons_putc(int c)
{
  8004201174:	55                   	push   %rbp
  8004201175:	48 89 e5             	mov    %rsp,%rbp
  8004201178:	48 83 ec 10          	sub    $0x10,%rsp
  800420117c:	89 7d fc             	mov    %edi,-0x4(%rbp)
	serial_putc(c);
  800420117f:	8b 45 fc             	mov    -0x4(%rbp),%eax
  8004201182:	89 c7                	mov    %eax,%edi
  8004201184:	48 b8 bc 07 20 04 80 	movabs $0x80042007bc,%rax
  800420118b:	00 00 00 
  800420118e:	ff d0                	callq  *%rax
	lpt_putc(c);
  8004201190:	8b 45 fc             	mov    -0x4(%rbp),%eax
  8004201193:	89 c7                	mov    %eax,%edi
  8004201195:	48 b8 2b 09 20 04 80 	movabs $0x800420092b,%rax
  800420119c:	00 00 00 
  800420119f:	ff d0                	callq  *%rax
	cga_putc(c);
  80042011a1:	8b 45 fc             	mov    -0x4(%rbp),%eax
  80042011a4:	89 c7                	mov    %eax,%edi
  80042011a6:	48 b8 cc 0a 20 04 80 	movabs $0x8004200acc,%rax
  80042011ad:	00 00 00 
  80042011b0:	ff d0                	callq  *%rax
}
  80042011b2:	90                   	nop
  80042011b3:	c9                   	leaveq 
  80042011b4:	c3                   	retq   

00000080042011b5 <cons_init>:

// initialize the console devices
void
cons_init(void)
{
  80042011b5:	55                   	push   %rbp
  80042011b6:	48 89 e5             	mov    %rsp,%rbp
	cga_init();
  80042011b9:	48 b8 b1 09 20 04 80 	movabs $0x80042009b1,%rax
  80042011c0:	00 00 00 
  80042011c3:	ff d0                	callq  *%rax
	kbd_init();
  80042011c5:	48 b8 00 10 20 04 80 	movabs $0x8004201000,%rax
  80042011cc:	00 00 00 
  80042011cf:	ff d0                	callq  *%rax
	serial_init();
  80042011d1:	48 b8 22 08 20 04 80 	movabs $0x8004200822,%rax
  80042011d8:	00 00 00 
  80042011db:	ff d0                	callq  *%rax

	if (!serial_exists)
  80042011dd:	48 b8 00 00 4e 04 80 	movabs $0x80044e0000,%rax
  80042011e4:	00 00 00 
  80042011e7:	0f b6 00             	movzbl (%rax),%eax
  80042011ea:	83 f0 01             	xor    $0x1,%eax
  80042011ed:	84 c0                	test   %al,%al
  80042011ef:	74 1b                	je     800420120c <cons_init+0x57>
		cprintf("Serial port does not exist!\n");
  80042011f1:	48 bf ba f0 21 04 80 	movabs $0x800421f0ba,%rdi
  80042011f8:	00 00 00 
  80042011fb:	b8 00 00 00 00       	mov    $0x0,%eax
  8004201200:	48 ba eb 9c 20 04 80 	movabs $0x8004209ceb,%rdx
  8004201207:	00 00 00 
  800420120a:	ff d2                	callq  *%rdx
}
  800420120c:	90                   	nop
  800420120d:	5d                   	pop    %rbp
  800420120e:	c3                   	retq   

000000800420120f <cputchar>:

// `High'-level console I/O.  Used by readline and cprintf.

void
cputchar(int c)
{
  800420120f:	55                   	push   %rbp
  8004201210:	48 89 e5             	mov    %rsp,%rbp
  8004201213:	48 83 ec 10          	sub    $0x10,%rsp
  8004201217:	89 7d fc             	mov    %edi,-0x4(%rbp)
	cons_putc(c);
  800420121a:	8b 45 fc             	mov    -0x4(%rbp),%eax
  800420121d:	89 c7                	mov    %eax,%edi
  800420121f:	48 b8 74 11 20 04 80 	movabs $0x8004201174,%rax
  8004201226:	00 00 00 
  8004201229:	ff d0                	callq  *%rax
}
  800420122b:	90                   	nop
  800420122c:	c9                   	leaveq 
  800420122d:	c3                   	retq   

000000800420122e <getchar>:

int
getchar(void)
{
  800420122e:	55                   	push   %rbp
  800420122f:	48 89 e5             	mov    %rsp,%rbp
  8004201232:	48 83 ec 10          	sub    $0x10,%rsp
	int c;

	while ((c = cons_getc()) == 0)
  8004201236:	48 b8 c0 10 20 04 80 	movabs $0x80042010c0,%rax
  800420123d:	00 00 00 
  8004201240:	ff d0                	callq  *%rax
  8004201242:	89 45 fc             	mov    %eax,-0x4(%rbp)
  8004201245:	83 7d fc 00          	cmpl   $0x0,-0x4(%rbp)
  8004201249:	74 eb                	je     8004201236 <getchar+0x8>
		/* do nothing */;
	return c;
  800420124b:	8b 45 fc             	mov    -0x4(%rbp),%eax
}
  800420124e:	c9                   	leaveq 
  800420124f:	c3                   	retq   

0000008004201250 <iscons>:

int
iscons(int fdnum)
{
  8004201250:	55                   	push   %rbp
  8004201251:	48 89 e5             	mov    %rsp,%rbp
  8004201254:	48 83 ec 08          	sub    $0x8,%rsp
  8004201258:	89 7d fc             	mov    %edi,-0x4(%rbp)
	// used by readline
	return 1;
  800420125b:	b8 01 00 00 00       	mov    $0x1,%eax
}
  8004201260:	c9                   	leaveq 
  8004201261:	c3                   	retq   

0000008004201262 <mon_help>:

/***** Implementations of basic kernel monitor commands *****/

int
mon_help(int argc, char **argv, struct Trapframe *tf)
{
  8004201262:	55                   	push   %rbp
  8004201263:	48 89 e5             	mov    %rsp,%rbp
  8004201266:	48 83 ec 30          	sub    $0x30,%rsp
  800420126a:	89 7d ec             	mov    %edi,-0x14(%rbp)
  800420126d:	48 89 75 e0          	mov    %rsi,-0x20(%rbp)
  8004201271:	48 89 55 d8          	mov    %rdx,-0x28(%rbp)
	int i;

	for (i = 0; i < NCOMMANDS; i++)
  8004201275:	c7 45 fc 00 00 00 00 	movl   $0x0,-0x4(%rbp)
  800420127c:	eb 6f                	jmp    80042012ed <mon_help+0x8b>
		cprintf("%s - %s\n", commands[i].name, commands[i].desc);
  800420127e:	48 b9 80 65 23 04 80 	movabs $0x8004236580,%rcx
  8004201285:	00 00 00 
  8004201288:	8b 45 fc             	mov    -0x4(%rbp),%eax
  800420128b:	48 63 d0             	movslq %eax,%rdx
  800420128e:	48 89 d0             	mov    %rdx,%rax
  8004201291:	48 01 c0             	add    %rax,%rax
  8004201294:	48 01 d0             	add    %rdx,%rax
  8004201297:	48 c1 e0 03          	shl    $0x3,%rax
  800420129b:	48 01 c8             	add    %rcx,%rax
  800420129e:	48 83 c0 08          	add    $0x8,%rax
  80042012a2:	48 8b 08             	mov    (%rax),%rcx
  80042012a5:	48 be 80 65 23 04 80 	movabs $0x8004236580,%rsi
  80042012ac:	00 00 00 
  80042012af:	8b 45 fc             	mov    -0x4(%rbp),%eax
  80042012b2:	48 63 d0             	movslq %eax,%rdx
  80042012b5:	48 89 d0             	mov    %rdx,%rax
  80042012b8:	48 01 c0             	add    %rax,%rax
  80042012bb:	48 01 d0             	add    %rdx,%rax
  80042012be:	48 c1 e0 03          	shl    $0x3,%rax
  80042012c2:	48 01 f0             	add    %rsi,%rax
  80042012c5:	48 8b 00             	mov    (%rax),%rax
  80042012c8:	48 89 ca             	mov    %rcx,%rdx
  80042012cb:	48 89 c6             	mov    %rax,%rsi
  80042012ce:	48 bf 6e f1 21 04 80 	movabs $0x800421f16e,%rdi
  80042012d5:	00 00 00 
  80042012d8:	b8 00 00 00 00       	mov    $0x0,%eax
  80042012dd:	48 b9 eb 9c 20 04 80 	movabs $0x8004209ceb,%rcx
  80042012e4:	00 00 00 
  80042012e7:	ff d1                	callq  *%rcx
int
mon_help(int argc, char **argv, struct Trapframe *tf)
{
	int i;

	for (i = 0; i < NCOMMANDS; i++)
  80042012e9:	83 45 fc 01          	addl   $0x1,-0x4(%rbp)
  80042012ed:	8b 45 fc             	mov    -0x4(%rbp),%eax
  80042012f0:	83 f8 03             	cmp    $0x3,%eax
  80042012f3:	76 89                	jbe    800420127e <mon_help+0x1c>
		cprintf("%s - %s\n", commands[i].name, commands[i].desc);
	return 0;
  80042012f5:	b8 00 00 00 00       	mov    $0x0,%eax
}
  80042012fa:	c9                   	leaveq 
  80042012fb:	c3                   	retq   

00000080042012fc <mon_kerninfo>:

int
mon_kerninfo(int argc, char **argv, struct Trapframe *tf)
{
  80042012fc:	55                   	push   %rbp
  80042012fd:	48 89 e5             	mov    %rsp,%rbp
  8004201300:	48 83 ec 30          	sub    $0x30,%rsp
  8004201304:	89 7d ec             	mov    %edi,-0x14(%rbp)
  8004201307:	48 89 75 e0          	mov    %rsi,-0x20(%rbp)
  800420130b:	48 89 55 d8          	mov    %rdx,-0x28(%rbp)
	extern char _start[], entry[], etext[], edata[], end[];

	cprintf("Special kernel symbols:\n");
  800420130f:	48 bf 77 f1 21 04 80 	movabs $0x800421f177,%rdi
  8004201316:	00 00 00 
  8004201319:	b8 00 00 00 00       	mov    $0x0,%eax
  800420131e:	48 ba eb 9c 20 04 80 	movabs $0x8004209ceb,%rdx
  8004201325:	00 00 00 
  8004201328:	ff d2                	callq  *%rdx
	cprintf("  _start                  %08x (phys)\n", _start);
  800420132a:	48 be 0c 00 20 00 00 	movabs $0x20000c,%rsi
  8004201331:	00 00 00 
  8004201334:	48 bf 90 f1 21 04 80 	movabs $0x800421f190,%rdi
  800420133b:	00 00 00 
  800420133e:	b8 00 00 00 00       	mov    $0x0,%eax
  8004201343:	48 ba eb 9c 20 04 80 	movabs $0x8004209ceb,%rdx
  800420134a:	00 00 00 
  800420134d:	ff d2                	callq  *%rdx
	cprintf("  entry  %08x (virt)  %08x (phys)\n", entry, entry - KERNBASE);
  800420134f:	48 b8 0c 00 20 00 00 	movabs $0x20000c,%rax
  8004201356:	00 00 00 
  8004201359:	48 89 c2             	mov    %rax,%rdx
  800420135c:	48 be 0c 00 20 04 80 	movabs $0x800420000c,%rsi
  8004201363:	00 00 00 
  8004201366:	48 bf b8 f1 21 04 80 	movabs $0x800421f1b8,%rdi
  800420136d:	00 00 00 
  8004201370:	b8 00 00 00 00       	mov    $0x0,%eax
  8004201375:	48 b9 eb 9c 20 04 80 	movabs $0x8004209ceb,%rcx
  800420137c:	00 00 00 
  800420137f:	ff d1                	callq  *%rcx
	cprintf("  etext  %08x (virt)  %08x (phys)\n", etext, etext - KERNBASE);
  8004201381:	48 b8 d2 ef 21 00 00 	movabs $0x21efd2,%rax
  8004201388:	00 00 00 
  800420138b:	48 89 c2             	mov    %rax,%rdx
  800420138e:	48 be d2 ef 21 04 80 	movabs $0x800421efd2,%rsi
  8004201395:	00 00 00 
  8004201398:	48 bf e0 f1 21 04 80 	movabs $0x800421f1e0,%rdi
  800420139f:	00 00 00 
  80042013a2:	b8 00 00 00 00       	mov    $0x0,%eax
  80042013a7:	48 b9 eb 9c 20 04 80 	movabs $0x8004209ceb,%rcx
  80042013ae:	00 00 00 
  80042013b1:	ff d1                	callq  *%rcx
	cprintf("  edata  %08x (virt)  %08x (phys)\n", edata, edata - KERNBASE);
  80042013b3:	48 b8 00 fd 4d 00 00 	movabs $0x4dfd00,%rax
  80042013ba:	00 00 00 
  80042013bd:	48 89 c2             	mov    %rax,%rdx
  80042013c0:	48 be 00 fd 4d 04 80 	movabs $0x80044dfd00,%rsi
  80042013c7:	00 00 00 
  80042013ca:	48 bf 08 f2 21 04 80 	movabs $0x800421f208,%rdi
  80042013d1:	00 00 00 
  80042013d4:	b8 00 00 00 00       	mov    $0x0,%eax
  80042013d9:	48 b9 eb 9c 20 04 80 	movabs $0x8004209ceb,%rcx
  80042013e0:	00 00 00 
  80042013e3:	ff d1                	callq  *%rcx
	cprintf("  end    %08x (virt)  %08x (phys)\n", end, end - KERNBASE);
  80042013e5:	48 b8 10 20 72 00 00 	movabs $0x722010,%rax
  80042013ec:	00 00 00 
  80042013ef:	48 89 c2             	mov    %rax,%rdx
  80042013f2:	48 be 10 20 72 04 80 	movabs $0x8004722010,%rsi
  80042013f9:	00 00 00 
  80042013fc:	48 bf 30 f2 21 04 80 	movabs $0x800421f230,%rdi
  8004201403:	00 00 00 
  8004201406:	b8 00 00 00 00       	mov    $0x0,%eax
  800420140b:	48 b9 eb 9c 20 04 80 	movabs $0x8004209ceb,%rcx
  8004201412:	00 00 00 
  8004201415:	ff d1                	callq  *%rcx
	cprintf("Kernel executable memory footprint: %dKB\n",
		ROUNDUP(end - entry, 1024) / 1024);
  8004201417:	48 c7 45 f8 00 04 00 	movq   $0x400,-0x8(%rbp)
  800420141e:	00 
  800420141f:	48 b8 0c 00 20 04 80 	movabs $0x800420000c,%rax
  8004201426:	00 00 00 
  8004201429:	48 8b 55 f8          	mov    -0x8(%rbp),%rdx
  800420142d:	48 29 c2             	sub    %rax,%rdx
  8004201430:	48 b8 10 20 72 04 80 	movabs $0x8004722010,%rax
  8004201437:	00 00 00 
  800420143a:	48 83 e8 01          	sub    $0x1,%rax
  800420143e:	48 01 d0             	add    %rdx,%rax
  8004201441:	48 89 45 f0          	mov    %rax,-0x10(%rbp)
  8004201445:	48 8b 45 f0          	mov    -0x10(%rbp),%rax
  8004201449:	ba 00 00 00 00       	mov    $0x0,%edx
  800420144e:	48 f7 75 f8          	divq   -0x8(%rbp)
  8004201452:	48 8b 45 f0          	mov    -0x10(%rbp),%rax
  8004201456:	48 29 d0             	sub    %rdx,%rax
	cprintf("  _start                  %08x (phys)\n", _start);
	cprintf("  entry  %08x (virt)  %08x (phys)\n", entry, entry - KERNBASE);
	cprintf("  etext  %08x (virt)  %08x (phys)\n", etext, etext - KERNBASE);
	cprintf("  edata  %08x (virt)  %08x (phys)\n", edata, edata - KERNBASE);
	cprintf("  end    %08x (virt)  %08x (phys)\n", end, end - KERNBASE);
	cprintf("Kernel executable memory footprint: %dKB\n",
  8004201459:	48 8d 90 ff 03 00 00 	lea    0x3ff(%rax),%rdx
  8004201460:	48 85 c0             	test   %rax,%rax
  8004201463:	48 0f 48 c2          	cmovs  %rdx,%rax
  8004201467:	48 c1 f8 0a          	sar    $0xa,%rax
  800420146b:	48 89 c6             	mov    %rax,%rsi
  800420146e:	48 bf 58 f2 21 04 80 	movabs $0x800421f258,%rdi
  8004201475:	00 00 00 
  8004201478:	b8 00 00 00 00       	mov    $0x0,%eax
  800420147d:	48 ba eb 9c 20 04 80 	movabs $0x8004209ceb,%rdx
  8004201484:	00 00 00 
  8004201487:	ff d2                	callq  *%rdx
		ROUNDUP(end - entry, 1024) / 1024);
	return 0;
  8004201489:	b8 00 00 00 00       	mov    $0x0,%eax
}
  800420148e:	c9                   	leaveq 
  800420148f:	c3                   	retq   

0000008004201490 <mon_backtrace>:

int
mon_backtrace(int argc, char **argv, struct Trapframe *tf)
{
  8004201490:	55                   	push   %rbp
  8004201491:	48 89 e5             	mov    %rsp,%rbp
  8004201494:	48 81 ec 50 05 00 00 	sub    $0x550,%rsp
  800420149b:	89 bd cc fa ff ff    	mov    %edi,-0x534(%rbp)
  80042014a1:	48 89 b5 c0 fa ff ff 	mov    %rsi,-0x540(%rbp)
  80042014a8:	48 89 95 b8 fa ff ff 	mov    %rdx,-0x548(%rbp)

static __inline uint64_t
read_rbp(void)
{
	uint64_t rbp;
	__asm __volatile("movq %%rbp,%0" : "=r" (rbp)::"cc","memory");
  80042014af:	48 89 e8             	mov    %rbp,%rax
  80042014b2:	48 89 45 c8          	mov    %rax,-0x38(%rbp)
	return rbp;
  80042014b6:	48 8b 45 c8          	mov    -0x38(%rbp),%rax
	uint64_t rip;
	uint64_t rsp;
	uint64_t offset;
	struct Ripdebuginfo info;

	rbp = (const uint64_t*)read_rbp();
  80042014ba:	48 89 45 f0          	mov    %rax,-0x10(%rbp)

static __inline uint64_t
read_rsp(void)
{
	uint64_t esp;
	__asm __volatile("movq %%rsp,%0" : "=r" (esp));
  80042014be:	48 89 e0             	mov    %rsp,%rax
  80042014c1:	48 89 45 b0          	mov    %rax,-0x50(%rbp)
	return esp;
  80042014c5:	48 8b 45 b0          	mov    -0x50(%rbp),%rax
	rsp = read_rsp();
  80042014c9:	48 89 45 e0          	mov    %rax,-0x20(%rbp)

	if (tf) {
  80042014cd:	48 83 bd b8 fa ff ff 	cmpq   $0x0,-0x548(%rbp)
  80042014d4:	00 
  80042014d5:	74 21                	je     80042014f8 <mon_backtrace+0x68>
		rbp = (const uint64_t*)tf->tf_regs.reg_rbp;
  80042014d7:	48 8b 85 b8 fa ff ff 	mov    -0x548(%rbp),%rax
  80042014de:	48 8b 40 50          	mov    0x50(%rax),%rax
  80042014e2:	48 89 45 f0          	mov    %rax,-0x10(%rbp)
		rsp = tf->tf_rsp;
  80042014e6:	48 8b 85 b8 fa ff ff 	mov    -0x548(%rbp),%rax
  80042014ed:	48 8b 80 b0 00 00 00 	mov    0xb0(%rax),%rax
  80042014f4:	48 89 45 e0          	mov    %rax,-0x20(%rbp)
	}

	read_rip(rip);
  80042014f8:	48 8d 05 00 00 00 00 	lea    0x0(%rip),%rax        # 80042014ff <mon_backtrace+0x6f>
  80042014ff:	48 89 45 e8          	mov    %rax,-0x18(%rbp)

	cprintf("Stack backtrace:\n");
  8004201503:	48 bf 82 f2 21 04 80 	movabs $0x800421f282,%rdi
  800420150a:	00 00 00 
  800420150d:	b8 00 00 00 00       	mov    $0x0,%eax
  8004201512:	48 ba eb 9c 20 04 80 	movabs $0x8004209ceb,%rdx
  8004201519:	00 00 00 
  800420151c:	ff d2                	callq  *%rdx
	while (rbp) {
  800420151e:	e9 15 03 00 00       	jmpq   8004201838 <mon_backtrace+0x3a8>
		// print this stack frame
		cprintf("  rbp %016llx  rip %016llx\n", rbp, rip);
  8004201523:	48 8b 55 e8          	mov    -0x18(%rbp),%rdx
  8004201527:	48 8b 45 f0          	mov    -0x10(%rbp),%rax
  800420152b:	48 89 c6             	mov    %rax,%rsi
  800420152e:	48 bf 94 f2 21 04 80 	movabs $0x800421f294,%rdi
  8004201535:	00 00 00 
  8004201538:	b8 00 00 00 00       	mov    $0x0,%eax
  800420153d:	48 b9 eb 9c 20 04 80 	movabs $0x8004209ceb,%rcx
  8004201544:	00 00 00 
  8004201547:	ff d1                	callq  *%rcx
		if (debuginfo_rip(rip, &info) >= 0){
  8004201549:	48 8d 95 d0 fa ff ff 	lea    -0x530(%rbp),%rdx
  8004201550:	48 8b 45 e8          	mov    -0x18(%rbp),%rax
  8004201554:	48 89 d6             	mov    %rdx,%rsi
  8004201557:	48 89 c7             	mov    %rax,%rdi
  800420155a:	48 b8 54 fe 20 04 80 	movabs $0x800420fe54,%rax
  8004201561:	00 00 00 
  8004201564:	ff d0                	callq  *%rax
  8004201566:	85 c0                	test   %eax,%eax
  8004201568:	0f 88 98 02 00 00    	js     8004201806 <mon_backtrace+0x376>
			Dwarf_Regtable_Entry *cfa_rule = &info.reg_table.cfa_rule;
  800420156e:	48 8d 85 d0 fa ff ff 	lea    -0x530(%rbp),%rax
  8004201575:	48 05 a8 00 00 00    	add    $0xa8,%rax
  800420157b:	48 89 45 c0          	mov    %rax,-0x40(%rbp)
			uint64_t cfa;

			cprintf("       %s:%d: %.*s+%016llx", info.rip_file, info.rip_line, 
				info.rip_fn_namelen, info.rip_fn_name, rip - info.rip_fn_addr);
  800420157f:	48 8b 85 f0 fa ff ff 	mov    -0x510(%rbp),%rax
		cprintf("  rbp %016llx  rip %016llx\n", rbp, rip);
		if (debuginfo_rip(rip, &info) >= 0){
			Dwarf_Regtable_Entry *cfa_rule = &info.reg_table.cfa_rule;
			uint64_t cfa;

			cprintf("       %s:%d: %.*s+%016llx", info.rip_file, info.rip_line, 
  8004201586:	48 8b 55 e8          	mov    -0x18(%rbp),%rdx
  800420158a:	48 89 d7             	mov    %rdx,%rdi
  800420158d:	48 29 c7             	sub    %rax,%rdi
  8004201590:	48 8b b5 e0 fa ff ff 	mov    -0x520(%rbp),%rsi
  8004201597:	8b 8d e8 fa ff ff    	mov    -0x518(%rbp),%ecx
  800420159d:	8b 95 d8 fa ff ff    	mov    -0x528(%rbp),%edx
  80042015a3:	48 8b 85 d0 fa ff ff 	mov    -0x530(%rbp),%rax
  80042015aa:	49 89 f9             	mov    %rdi,%r9
  80042015ad:	49 89 f0             	mov    %rsi,%r8
  80042015b0:	48 89 c6             	mov    %rax,%rsi
  80042015b3:	48 bf b0 f2 21 04 80 	movabs $0x800421f2b0,%rdi
  80042015ba:	00 00 00 
  80042015bd:	b8 00 00 00 00       	mov    $0x0,%eax
  80042015c2:	49 ba eb 9c 20 04 80 	movabs $0x8004209ceb,%r10
  80042015c9:	00 00 00 
  80042015cc:	41 ff d2             	callq  *%r10
				info.rip_fn_namelen, info.rip_fn_name, rip - info.rip_fn_addr);

			if (cfa_rule->dw_regnum == 6) { /* 6: rbp */
  80042015cf:	48 8b 45 c0          	mov    -0x40(%rbp),%rax
  80042015d3:	0f b7 40 02          	movzwl 0x2(%rax),%eax
  80042015d7:	66 83 f8 06          	cmp    $0x6,%ax
  80042015db:	75 15                	jne    80042015f2 <mon_backtrace+0x162>
				cfa = (uint64_t)rbp + cfa_rule->dw_offset;
  80042015dd:	48 8b 45 c0          	mov    -0x40(%rbp),%rax
  80042015e1:	48 8b 50 08          	mov    0x8(%rax),%rdx
  80042015e5:	48 8b 45 f0          	mov    -0x10(%rbp),%rax
  80042015e9:	48 01 d0             	add    %rdx,%rax
  80042015ec:	48 89 45 d8          	mov    %rax,-0x28(%rbp)
  80042015f0:	eb 25                	jmp    8004201617 <mon_backtrace+0x187>
			} else if (cfa_rule->dw_regnum == 7) { /* 7: rsp */
  80042015f2:	48 8b 45 c0          	mov    -0x40(%rbp),%rax
  80042015f6:	0f b7 40 02          	movzwl 0x2(%rax),%eax
  80042015fa:	66 83 f8 07          	cmp    $0x7,%ax
  80042015fe:	0f 85 01 02 00 00    	jne    8004201805 <mon_backtrace+0x375>
				cfa = rsp + cfa_rule->dw_offset;
  8004201604:	48 8b 45 c0          	mov    -0x40(%rbp),%rax
  8004201608:	48 8b 50 08          	mov    0x8(%rax),%rdx
  800420160c:	48 8b 45 e0          	mov    -0x20(%rbp),%rax
  8004201610:	48 01 d0             	add    %rdx,%rax
  8004201613:	48 89 45 d8          	mov    %rax,-0x28(%rbp)
			} else {
				goto unknown_cfa;
			}

			cprintf("  args:%d ", info.rip_fn_narg);
  8004201617:	8b 85 f8 fa ff ff    	mov    -0x508(%rbp),%eax
  800420161d:	89 c6                	mov    %eax,%esi
  800420161f:	48 bf cb f2 21 04 80 	movabs $0x800421f2cb,%rdi
  8004201626:	00 00 00 
  8004201629:	b8 00 00 00 00       	mov    $0x0,%eax
  800420162e:	48 ba eb 9c 20 04 80 	movabs $0x8004209ceb,%rdx
  8004201635:	00 00 00 
  8004201638:	ff d2                	callq  *%rdx
			for (i = 0; i < info.rip_fn_narg ; i++)
  800420163a:	c7 45 fc 00 00 00 00 	movl   $0x0,-0x4(%rbp)
  8004201641:	e9 f2 00 00 00       	jmpq   8004201738 <mon_backtrace+0x2a8>
			{
				uint64_t val;
				assert(info.offset_fn_arg[i]);
  8004201646:	8b 45 fc             	mov    -0x4(%rbp),%eax
  8004201649:	48 98                	cltq   
  800420164b:	48 83 c0 0a          	add    $0xa,%rax
  800420164f:	48 8b 84 c5 d8 fa ff 	mov    -0x528(%rbp,%rax,8),%rax
  8004201656:	ff 
  8004201657:	48 85 c0             	test   %rax,%rax
  800420165a:	75 35                	jne    8004201691 <mon_backtrace+0x201>
  800420165c:	48 b9 d6 f2 21 04 80 	movabs $0x800421f2d6,%rcx
  8004201663:	00 00 00 
  8004201666:	48 ba ec f2 21 04 80 	movabs $0x800421f2ec,%rdx
  800420166d:	00 00 00 
  8004201670:	be 77 00 00 00       	mov    $0x77,%esi
  8004201675:	48 bf 01 f3 21 04 80 	movabs $0x800421f301,%rdi
  800420167c:	00 00 00 
  800420167f:	b8 00 00 00 00       	mov    $0x0,%eax
  8004201684:	49 b8 d3 04 20 04 80 	movabs $0x80042004d3,%r8
  800420168b:	00 00 00 
  800420168e:	41 ff d0             	callq  *%r8
				offset = cfa + info.offset_fn_arg[i];
  8004201691:	8b 45 fc             	mov    -0x4(%rbp),%eax
  8004201694:	48 98                	cltq   
  8004201696:	48 83 c0 0a          	add    $0xa,%rax
  800420169a:	48 8b 94 c5 d8 fa ff 	mov    -0x528(%rbp,%rax,8),%rdx
  80042016a1:	ff 
  80042016a2:	48 8b 45 d8          	mov    -0x28(%rbp),%rax
  80042016a6:	48 01 d0             	add    %rdx,%rax
  80042016a9:	48 89 45 b8          	mov    %rax,-0x48(%rbp)
				switch(info.size_fn_arg[i]) {
  80042016ad:	8b 45 fc             	mov    -0x4(%rbp),%eax
  80042016b0:	48 98                	cltq   
  80042016b2:	48 83 c0 08          	add    $0x8,%rax
  80042016b6:	8b 84 85 dc fa ff ff 	mov    -0x524(%rbp,%rax,4),%eax
  80042016bd:	83 f8 02             	cmp    $0x2,%eax
  80042016c0:	74 31                	je     80042016f3 <mon_backtrace+0x263>
  80042016c2:	83 f8 02             	cmp    $0x2,%eax
  80042016c5:	7f 07                	jg     80042016ce <mon_backtrace+0x23e>
  80042016c7:	83 f8 01             	cmp    $0x1,%eax
  80042016ca:	74 37                	je     8004201703 <mon_backtrace+0x273>
  80042016cc:	eb 44                	jmp    8004201712 <mon_backtrace+0x282>
  80042016ce:	83 f8 04             	cmp    $0x4,%eax
  80042016d1:	74 12                	je     80042016e5 <mon_backtrace+0x255>
  80042016d3:	83 f8 08             	cmp    $0x8,%eax
  80042016d6:	75 3a                	jne    8004201712 <mon_backtrace+0x282>
					case 8:
						val = *(uint64_t *) offset;
  80042016d8:	48 8b 45 b8          	mov    -0x48(%rbp),%rax
  80042016dc:	48 8b 00             	mov    (%rax),%rax
  80042016df:	48 89 45 d0          	mov    %rax,-0x30(%rbp)
						break;
  80042016e3:	eb 2d                	jmp    8004201712 <mon_backtrace+0x282>
					case 4:
						val = *(uint32_t *) offset;
  80042016e5:	48 8b 45 b8          	mov    -0x48(%rbp),%rax
  80042016e9:	8b 00                	mov    (%rax),%eax
  80042016eb:	89 c0                	mov    %eax,%eax
  80042016ed:	48 89 45 d0          	mov    %rax,-0x30(%rbp)
						break;
  80042016f1:	eb 1f                	jmp    8004201712 <mon_backtrace+0x282>
					case 2:
						val = *(uint16_t *) offset;
  80042016f3:	48 8b 45 b8          	mov    -0x48(%rbp),%rax
  80042016f7:	0f b7 00             	movzwl (%rax),%eax
  80042016fa:	0f b7 c0             	movzwl %ax,%eax
  80042016fd:	48 89 45 d0          	mov    %rax,-0x30(%rbp)
						break;
  8004201701:	eb 0f                	jmp    8004201712 <mon_backtrace+0x282>
					case 1:
						val = *(uint8_t *) offset;
  8004201703:	48 8b 45 b8          	mov    -0x48(%rbp),%rax
  8004201707:	0f b6 00             	movzbl (%rax),%eax
  800420170a:	0f b6 c0             	movzbl %al,%eax
  800420170d:	48 89 45 d0          	mov    %rax,-0x30(%rbp)
						break;
  8004201711:	90                   	nop
				}
				cprintf(" %016x", val);
  8004201712:	48 8b 45 d0          	mov    -0x30(%rbp),%rax
  8004201716:	48 89 c6             	mov    %rax,%rsi
  8004201719:	48 bf 10 f3 21 04 80 	movabs $0x800421f310,%rdi
  8004201720:	00 00 00 
  8004201723:	b8 00 00 00 00       	mov    $0x0,%eax
  8004201728:	48 ba eb 9c 20 04 80 	movabs $0x8004209ceb,%rdx
  800420172f:	00 00 00 
  8004201732:	ff d2                	callq  *%rdx
			} else {
				goto unknown_cfa;
			}

			cprintf("  args:%d ", info.rip_fn_narg);
			for (i = 0; i < info.rip_fn_narg ; i++)
  8004201734:	83 45 fc 01          	addl   $0x1,-0x4(%rbp)
  8004201738:	8b 85 f8 fa ff ff    	mov    -0x508(%rbp),%eax
  800420173e:	3b 45 fc             	cmp    -0x4(%rbp),%eax
  8004201741:	0f 8f ff fe ff ff    	jg     8004201646 <mon_backtrace+0x1b6>
						break;
				}
				cprintf(" %016x", val);
			}

			switch(info.reg_table.rules[6].dw_regnum) { /* 6: rbp */
  8004201747:	0f b7 85 ea fb ff ff 	movzwl -0x416(%rbp),%eax
  800420174e:	0f b7 c0             	movzwl %ax,%eax
  8004201751:	3d 0b 04 00 00       	cmp    $0x40b,%eax
  8004201756:	74 48                	je     80042017a0 <mon_backtrace+0x310>
  8004201758:	3d 9c 05 00 00       	cmp    $0x59c,%eax
  800420175d:	75 17                	jne    8004201776 <mon_backtrace+0x2e6>
				case DW_FRAME_SAME_VAL:
					break;
				case DW_FRAME_CFA_COL3:
					rbp = (const uint64_t *)*(uint64_t *)(cfa + info.reg_table.rules[6].dw_offset);
  800420175f:	48 8b 95 f0 fb ff ff 	mov    -0x410(%rbp),%rdx
  8004201766:	48 8b 45 d8          	mov    -0x28(%rbp),%rax
  800420176a:	48 01 d0             	add    %rdx,%rax
  800420176d:	48 8b 00             	mov    (%rax),%rax
  8004201770:	48 89 45 f0          	mov    %rax,-0x10(%rbp)
					break;
  8004201774:	eb 2b                	jmp    80042017a1 <mon_backtrace+0x311>
				default:
					panic("unknown reg rule");
  8004201776:	48 ba 17 f3 21 04 80 	movabs $0x800421f317,%rdx
  800420177d:	00 00 00 
  8004201780:	be 91 00 00 00       	mov    $0x91,%esi
  8004201785:	48 bf 01 f3 21 04 80 	movabs $0x800421f301,%rdi
  800420178c:	00 00 00 
  800420178f:	b8 00 00 00 00       	mov    $0x0,%eax
  8004201794:	48 b9 d3 04 20 04 80 	movabs $0x80042004d3,%rcx
  800420179b:	00 00 00 
  800420179e:	ff d1                	callq  *%rcx
				cprintf(" %016x", val);
			}

			switch(info.reg_table.rules[6].dw_regnum) { /* 6: rbp */
				case DW_FRAME_SAME_VAL:
					break;
  80042017a0:	90                   	nop
				default:
					panic("unknown reg rule");
					break;
			}

			switch(info.reg_table.rules[16].dw_regnum) { /* 16: rip */
  80042017a1:	0f b7 85 8a fc ff ff 	movzwl -0x376(%rbp),%eax
  80042017a8:	0f b7 c0             	movzwl %ax,%eax
  80042017ab:	3d 0b 04 00 00       	cmp    $0x40b,%eax
  80042017b0:	74 48                	je     80042017fa <mon_backtrace+0x36a>
  80042017b2:	3d 9c 05 00 00       	cmp    $0x59c,%eax
  80042017b7:	75 17                	jne    80042017d0 <mon_backtrace+0x340>
				case DW_FRAME_SAME_VAL:
					break;
				case DW_FRAME_CFA_COL3:
					rip = *(uint64_t *)(cfa + info.reg_table.rules[16].dw_offset);
  80042017b9:	48 8b 95 90 fc ff ff 	mov    -0x370(%rbp),%rdx
  80042017c0:	48 8b 45 d8          	mov    -0x28(%rbp),%rax
  80042017c4:	48 01 d0             	add    %rdx,%rax
  80042017c7:	48 8b 00             	mov    (%rax),%rax
  80042017ca:	48 89 45 e8          	mov    %rax,-0x18(%rbp)
					break;
  80042017ce:	eb 2b                	jmp    80042017fb <mon_backtrace+0x36b>
				default:
					panic("unknown reg rule");
  80042017d0:	48 ba 17 f3 21 04 80 	movabs $0x800421f317,%rdx
  80042017d7:	00 00 00 
  80042017da:	be 9c 00 00 00       	mov    $0x9c,%esi
  80042017df:	48 bf 01 f3 21 04 80 	movabs $0x800421f301,%rdi
  80042017e6:	00 00 00 
  80042017e9:	b8 00 00 00 00       	mov    $0x0,%eax
  80042017ee:	48 b9 d3 04 20 04 80 	movabs $0x80042004d3,%rcx
  80042017f5:	00 00 00 
  80042017f8:	ff d1                	callq  *%rcx
					break;
			}

			switch(info.reg_table.rules[16].dw_regnum) { /* 16: rip */
				case DW_FRAME_SAME_VAL:
					break;
  80042017fa:	90                   	nop
				default:
					panic("unknown reg rule");
					break;
			}

			rsp = cfa;
  80042017fb:	48 8b 45 d8          	mov    -0x28(%rbp),%rax
  80042017ff:	48 89 45 e0          	mov    %rax,-0x20(%rbp)
  8004201803:	eb 18                	jmp    800420181d <mon_backtrace+0x38d>
			if (cfa_rule->dw_regnum == 6) { /* 6: rbp */
				cfa = (uint64_t)rbp + cfa_rule->dw_offset;
			} else if (cfa_rule->dw_regnum == 7) { /* 7: rsp */
				cfa = rsp + cfa_rule->dw_offset;
			} else {
				goto unknown_cfa;
  8004201805:	90                   	nop

			rsp = cfa;
		} else {
unknown_cfa:
			// move to next lower stack frame
			rip = rbp[1];
  8004201806:	48 8b 45 f0          	mov    -0x10(%rbp),%rax
  800420180a:	48 8b 40 08          	mov    0x8(%rax),%rax
  800420180e:	48 89 45 e8          	mov    %rax,-0x18(%rbp)
			rbp = (const uint64_t*) rbp[0];
  8004201812:	48 8b 45 f0          	mov    -0x10(%rbp),%rax
  8004201816:	48 8b 00             	mov    (%rax),%rax
  8004201819:	48 89 45 f0          	mov    %rax,-0x10(%rbp)
		}
		cprintf("\n");
  800420181d:	48 bf 28 f3 21 04 80 	movabs $0x800421f328,%rdi
  8004201824:	00 00 00 
  8004201827:	b8 00 00 00 00       	mov    $0x0,%eax
  800420182c:	48 ba eb 9c 20 04 80 	movabs $0x8004209ceb,%rdx
  8004201833:	00 00 00 
  8004201836:	ff d2                	callq  *%rdx
	}

	read_rip(rip);

	cprintf("Stack backtrace:\n");
	while (rbp) {
  8004201838:	48 83 7d f0 00       	cmpq   $0x0,-0x10(%rbp)
  800420183d:	0f 85 e0 fc ff ff    	jne    8004201523 <mon_backtrace+0x93>
			rbp = (const uint64_t*) rbp[0];
		}
		cprintf("\n");
	}

	return 0;
  8004201843:	b8 00 00 00 00       	mov    $0x0,%eax
}
  8004201848:	c9                   	leaveq 
  8004201849:	c3                   	retq   

000000800420184a <mon_exit>:


int
mon_exit(int argc, char** argv, struct Trapframe* tf)
{
  800420184a:	55                   	push   %rbp
  800420184b:	48 89 e5             	mov    %rsp,%rbp
  800420184e:	48 83 ec 18          	sub    $0x18,%rsp
  8004201852:	89 7d fc             	mov    %edi,-0x4(%rbp)
  8004201855:	48 89 75 f0          	mov    %rsi,-0x10(%rbp)
  8004201859:	48 89 55 e8          	mov    %rdx,-0x18(%rbp)
#ifdef VMM_GUEST
	asm("hlt");
#endif
	return -1;
  800420185d:	b8 ff ff ff ff       	mov    $0xffffffff,%eax
}
  8004201862:	c9                   	leaveq 
  8004201863:	c3                   	retq   

0000008004201864 <runcmd>:
#define WHITESPACE "\t\r\n "
#define MAXARGS 16

static int
runcmd(char *buf, struct Trapframe *tf)
{
  8004201864:	55                   	push   %rbp
  8004201865:	48 89 e5             	mov    %rsp,%rbp
  8004201868:	48 81 ec a0 00 00 00 	sub    $0xa0,%rsp
  800420186f:	48 89 bd 68 ff ff ff 	mov    %rdi,-0x98(%rbp)
  8004201876:	48 89 b5 60 ff ff ff 	mov    %rsi,-0xa0(%rbp)
	int argc;
	char *argv[MAXARGS];
	int i;

	// Parse the command buffer into whitespace-separated arguments
	argc = 0;
  800420187d:	c7 45 fc 00 00 00 00 	movl   $0x0,-0x4(%rbp)
	argv[argc] = 0;
  8004201884:	8b 45 fc             	mov    -0x4(%rbp),%eax
  8004201887:	48 98                	cltq   
  8004201889:	48 c7 84 c5 70 ff ff 	movq   $0x0,-0x90(%rbp,%rax,8)
  8004201890:	ff 00 00 00 00 
	while (1) {
		// gobble whitespace
		while (*buf && strchr(WHITESPACE, *buf))
  8004201895:	eb 15                	jmp    80042018ac <runcmd+0x48>
			*buf++ = 0;
  8004201897:	48 8b 85 68 ff ff ff 	mov    -0x98(%rbp),%rax
  800420189e:	48 8d 50 01          	lea    0x1(%rax),%rdx
  80042018a2:	48 89 95 68 ff ff ff 	mov    %rdx,-0x98(%rbp)
  80042018a9:	c6 00 00             	movb   $0x0,(%rax)
	// Parse the command buffer into whitespace-separated arguments
	argc = 0;
	argv[argc] = 0;
	while (1) {
		// gobble whitespace
		while (*buf && strchr(WHITESPACE, *buf))
  80042018ac:	48 8b 85 68 ff ff ff 	mov    -0x98(%rbp),%rax
  80042018b3:	0f b6 00             	movzbl (%rax),%eax
  80042018b6:	84 c0                	test   %al,%al
  80042018b8:	74 2a                	je     80042018e4 <runcmd+0x80>
  80042018ba:	48 8b 85 68 ff ff ff 	mov    -0x98(%rbp),%rax
  80042018c1:	0f b6 00             	movzbl (%rax),%eax
  80042018c4:	0f be c0             	movsbl %al,%eax
  80042018c7:	89 c6                	mov    %eax,%esi
  80042018c9:	48 bf 2a f3 21 04 80 	movabs $0x800421f32a,%rdi
  80042018d0:	00 00 00 
  80042018d3:	48 b8 45 11 21 04 80 	movabs $0x8004211145,%rax
  80042018da:	00 00 00 
  80042018dd:	ff d0                	callq  *%rax
  80042018df:	48 85 c0             	test   %rax,%rax
  80042018e2:	75 b3                	jne    8004201897 <runcmd+0x33>
			*buf++ = 0;
		if (*buf == 0)
  80042018e4:	48 8b 85 68 ff ff ff 	mov    -0x98(%rbp),%rax
  80042018eb:	0f b6 00             	movzbl (%rax),%eax
  80042018ee:	84 c0                	test   %al,%al
  80042018f0:	0f 84 95 00 00 00    	je     800420198b <runcmd+0x127>
			break;

		// save and scan past next arg
		if (argc == MAXARGS-1) {
  80042018f6:	83 7d fc 0f          	cmpl   $0xf,-0x4(%rbp)
  80042018fa:	75 2a                	jne    8004201926 <runcmd+0xc2>
			cprintf("Too many arguments (max %d)\n", MAXARGS);
  80042018fc:	be 10 00 00 00       	mov    $0x10,%esi
  8004201901:	48 bf 2f f3 21 04 80 	movabs $0x800421f32f,%rdi
  8004201908:	00 00 00 
  800420190b:	b8 00 00 00 00       	mov    $0x0,%eax
  8004201910:	48 ba eb 9c 20 04 80 	movabs $0x8004209ceb,%rdx
  8004201917:	00 00 00 
  800420191a:	ff d2                	callq  *%rdx
			return 0;
  800420191c:	b8 00 00 00 00       	mov    $0x0,%eax
  8004201921:	e9 4b 01 00 00       	jmpq   8004201a71 <runcmd+0x20d>
		}
		argv[argc++] = buf;
  8004201926:	8b 45 fc             	mov    -0x4(%rbp),%eax
  8004201929:	8d 50 01             	lea    0x1(%rax),%edx
  800420192c:	89 55 fc             	mov    %edx,-0x4(%rbp)
  800420192f:	48 98                	cltq   
  8004201931:	48 8b 95 68 ff ff ff 	mov    -0x98(%rbp),%rdx
  8004201938:	48 89 94 c5 70 ff ff 	mov    %rdx,-0x90(%rbp,%rax,8)
  800420193f:	ff 
		while (*buf && !strchr(WHITESPACE, *buf))
  8004201940:	eb 08                	jmp    800420194a <runcmd+0xe6>
			buf++;
  8004201942:	48 83 85 68 ff ff ff 	addq   $0x1,-0x98(%rbp)
  8004201949:	01 
		if (argc == MAXARGS-1) {
			cprintf("Too many arguments (max %d)\n", MAXARGS);
			return 0;
		}
		argv[argc++] = buf;
		while (*buf && !strchr(WHITESPACE, *buf))
  800420194a:	48 8b 85 68 ff ff ff 	mov    -0x98(%rbp),%rax
  8004201951:	0f b6 00             	movzbl (%rax),%eax
  8004201954:	84 c0                	test   %al,%al
  8004201956:	0f 84 39 ff ff ff    	je     8004201895 <runcmd+0x31>
  800420195c:	48 8b 85 68 ff ff ff 	mov    -0x98(%rbp),%rax
  8004201963:	0f b6 00             	movzbl (%rax),%eax
  8004201966:	0f be c0             	movsbl %al,%eax
  8004201969:	89 c6                	mov    %eax,%esi
  800420196b:	48 bf 2a f3 21 04 80 	movabs $0x800421f32a,%rdi
  8004201972:	00 00 00 
  8004201975:	48 b8 45 11 21 04 80 	movabs $0x8004211145,%rax
  800420197c:	00 00 00 
  800420197f:	ff d0                	callq  *%rax
  8004201981:	48 85 c0             	test   %rax,%rax
  8004201984:	74 bc                	je     8004201942 <runcmd+0xde>
			buf++;
	}
  8004201986:	e9 0a ff ff ff       	jmpq   8004201895 <runcmd+0x31>
	while (1) {
		// gobble whitespace
		while (*buf && strchr(WHITESPACE, *buf))
			*buf++ = 0;
		if (*buf == 0)
			break;
  800420198b:	90                   	nop
		}
		argv[argc++] = buf;
		while (*buf && !strchr(WHITESPACE, *buf))
			buf++;
	}
	argv[argc] = 0;
  800420198c:	8b 45 fc             	mov    -0x4(%rbp),%eax
  800420198f:	48 98                	cltq   
  8004201991:	48 c7 84 c5 70 ff ff 	movq   $0x0,-0x90(%rbp,%rax,8)
  8004201998:	ff 00 00 00 00 

	// Lookup and invoke the command
	if (argc == 0)
  800420199d:	83 7d fc 00          	cmpl   $0x0,-0x4(%rbp)
  80042019a1:	75 0a                	jne    80042019ad <runcmd+0x149>
		return 0;
  80042019a3:	b8 00 00 00 00       	mov    $0x0,%eax
  80042019a8:	e9 c4 00 00 00       	jmpq   8004201a71 <runcmd+0x20d>
	for (i = 0; i < NCOMMANDS; i++) {
  80042019ad:	c7 45 f8 00 00 00 00 	movl   $0x0,-0x8(%rbp)
  80042019b4:	e9 82 00 00 00       	jmpq   8004201a3b <runcmd+0x1d7>
		if (strcmp(argv[0], commands[i].name) == 0)
  80042019b9:	48 b9 80 65 23 04 80 	movabs $0x8004236580,%rcx
  80042019c0:	00 00 00 
  80042019c3:	8b 45 f8             	mov    -0x8(%rbp),%eax
  80042019c6:	48 63 d0             	movslq %eax,%rdx
  80042019c9:	48 89 d0             	mov    %rdx,%rax
  80042019cc:	48 01 c0             	add    %rax,%rax
  80042019cf:	48 01 d0             	add    %rdx,%rax
  80042019d2:	48 c1 e0 03          	shl    $0x3,%rax
  80042019d6:	48 01 c8             	add    %rcx,%rax
  80042019d9:	48 8b 10             	mov    (%rax),%rdx
  80042019dc:	48 8b 85 70 ff ff ff 	mov    -0x90(%rbp),%rax
  80042019e3:	48 89 d6             	mov    %rdx,%rsi
  80042019e6:	48 89 c7             	mov    %rax,%rdi
  80042019e9:	48 b8 81 10 21 04 80 	movabs $0x8004211081,%rax
  80042019f0:	00 00 00 
  80042019f3:	ff d0                	callq  *%rax
  80042019f5:	85 c0                	test   %eax,%eax
  80042019f7:	75 3e                	jne    8004201a37 <runcmd+0x1d3>
			return commands[i].func(argc, argv, tf);
  80042019f9:	48 b9 80 65 23 04 80 	movabs $0x8004236580,%rcx
  8004201a00:	00 00 00 
  8004201a03:	8b 45 f8             	mov    -0x8(%rbp),%eax
  8004201a06:	48 63 d0             	movslq %eax,%rdx
  8004201a09:	48 89 d0             	mov    %rdx,%rax
  8004201a0c:	48 01 c0             	add    %rax,%rax
  8004201a0f:	48 01 d0             	add    %rdx,%rax
  8004201a12:	48 c1 e0 03          	shl    $0x3,%rax
  8004201a16:	48 01 c8             	add    %rcx,%rax
  8004201a19:	48 83 c0 10          	add    $0x10,%rax
  8004201a1d:	48 8b 00             	mov    (%rax),%rax
  8004201a20:	48 8b 95 60 ff ff ff 	mov    -0xa0(%rbp),%rdx
  8004201a27:	48 8d b5 70 ff ff ff 	lea    -0x90(%rbp),%rsi
  8004201a2e:	8b 4d fc             	mov    -0x4(%rbp),%ecx
  8004201a31:	89 cf                	mov    %ecx,%edi
  8004201a33:	ff d0                	callq  *%rax
  8004201a35:	eb 3a                	jmp    8004201a71 <runcmd+0x20d>
	argv[argc] = 0;

	// Lookup and invoke the command
	if (argc == 0)
		return 0;
	for (i = 0; i < NCOMMANDS; i++) {
  8004201a37:	83 45 f8 01          	addl   $0x1,-0x8(%rbp)
  8004201a3b:	8b 45 f8             	mov    -0x8(%rbp),%eax
  8004201a3e:	83 f8 03             	cmp    $0x3,%eax
  8004201a41:	0f 86 72 ff ff ff    	jbe    80042019b9 <runcmd+0x155>
		if (strcmp(argv[0], commands[i].name) == 0)
			return commands[i].func(argc, argv, tf);
	}
	cprintf("Unknown command '%s'\n", argv[0]);
  8004201a47:	48 8b 85 70 ff ff ff 	mov    -0x90(%rbp),%rax
  8004201a4e:	48 89 c6             	mov    %rax,%rsi
  8004201a51:	48 bf 4c f3 21 04 80 	movabs $0x800421f34c,%rdi
  8004201a58:	00 00 00 
  8004201a5b:	b8 00 00 00 00       	mov    $0x0,%eax
  8004201a60:	48 ba eb 9c 20 04 80 	movabs $0x8004209ceb,%rdx
  8004201a67:	00 00 00 
  8004201a6a:	ff d2                	callq  *%rdx
	return 0;
  8004201a6c:	b8 00 00 00 00       	mov    $0x0,%eax
}
  8004201a71:	c9                   	leaveq 
  8004201a72:	c3                   	retq   

0000008004201a73 <monitor>:

void
monitor(struct Trapframe *tf)
{
  8004201a73:	55                   	push   %rbp
  8004201a74:	48 89 e5             	mov    %rsp,%rbp
  8004201a77:	48 83 ec 20          	sub    $0x20,%rsp
  8004201a7b:	48 89 7d e8          	mov    %rdi,-0x18(%rbp)
	char *buf;

	cprintf("Welcome to the JOS kernel monitor!\n");
  8004201a7f:	48 bf 68 f3 21 04 80 	movabs $0x800421f368,%rdi
  8004201a86:	00 00 00 
  8004201a89:	b8 00 00 00 00       	mov    $0x0,%eax
  8004201a8e:	48 ba eb 9c 20 04 80 	movabs $0x8004209ceb,%rdx
  8004201a95:	00 00 00 
  8004201a98:	ff d2                	callq  *%rdx
	cprintf("Type 'help' for a list of commands.\n");
  8004201a9a:	48 bf 90 f3 21 04 80 	movabs $0x800421f390,%rdi
  8004201aa1:	00 00 00 
  8004201aa4:	b8 00 00 00 00       	mov    $0x0,%eax
  8004201aa9:	48 ba eb 9c 20 04 80 	movabs $0x8004209ceb,%rdx
  8004201ab0:	00 00 00 
  8004201ab3:	ff d2                	callq  *%rdx


	if (tf != NULL)
  8004201ab5:	48 83 7d e8 00       	cmpq   $0x0,-0x18(%rbp)
  8004201aba:	74 13                	je     8004201acf <monitor+0x5c>
		print_trapframe(tf);
  8004201abc:	48 8b 45 e8          	mov    -0x18(%rbp),%rax
  8004201ac0:	48 89 c7             	mov    %rax,%rdi
  8004201ac3:	48 b8 f7 c9 20 04 80 	movabs $0x800420c9f7,%rax
  8004201aca:	00 00 00 
  8004201acd:	ff d0                	callq  *%rax


	while (1) {
		buf = readline("K> ");
  8004201acf:	48 bf b5 f3 21 04 80 	movabs $0x800421f3b5,%rdi
  8004201ad6:	00 00 00 
  8004201ad9:	48 b8 5a 0d 21 04 80 	movabs $0x8004210d5a,%rax
  8004201ae0:	00 00 00 
  8004201ae3:	ff d0                	callq  *%rax
  8004201ae5:	48 89 45 f8          	mov    %rax,-0x8(%rbp)
		if (buf != NULL)
  8004201ae9:	48 83 7d f8 00       	cmpq   $0x0,-0x8(%rbp)
  8004201aee:	74 df                	je     8004201acf <monitor+0x5c>
			if (runcmd(buf, tf) < 0)
  8004201af0:	48 8b 55 e8          	mov    -0x18(%rbp),%rdx
  8004201af4:	48 8b 45 f8          	mov    -0x8(%rbp),%rax
  8004201af8:	48 89 d6             	mov    %rdx,%rsi
  8004201afb:	48 89 c7             	mov    %rax,%rdi
  8004201afe:	48 b8 64 18 20 04 80 	movabs $0x8004201864,%rax
  8004201b05:	00 00 00 
  8004201b08:	ff d0                	callq  *%rax
  8004201b0a:	85 c0                	test   %eax,%eax
  8004201b0c:	78 02                	js     8004201b10 <monitor+0x9d>
				break;
	}
  8004201b0e:	eb bf                	jmp    8004201acf <monitor+0x5c>

	while (1) {
		buf = readline("K> ");
		if (buf != NULL)
			if (runcmd(buf, tf) < 0)
				break;
  8004201b10:	90                   	nop
	}
}
  8004201b11:	90                   	nop
  8004201b12:	c9                   	leaveq 
  8004201b13:	c3                   	retq   

0000008004201b14 <page2ppn>:
void	user_mem_assert(struct Env *env, const void *va, size_t len, int perm);


static inline ppn_t
page2ppn(struct PageInfo *pp)
{
  8004201b14:	55                   	push   %rbp
  8004201b15:	48 89 e5             	mov    %rsp,%rbp
  8004201b18:	48 83 ec 08          	sub    $0x8,%rsp
  8004201b1c:	48 89 7d f8          	mov    %rdi,-0x8(%rbp)
	return pp - pages;
  8004201b20:	48 8b 55 f8          	mov    -0x8(%rbp),%rdx
  8004201b24:	48 b8 00 f6 6d 04 80 	movabs $0x80046df600,%rax
  8004201b2b:	00 00 00 
  8004201b2e:	48 8b 00             	mov    (%rax),%rax
  8004201b31:	48 29 c2             	sub    %rax,%rdx
  8004201b34:	48 89 d0             	mov    %rdx,%rax
  8004201b37:	48 c1 f8 04          	sar    $0x4,%rax
}
  8004201b3b:	c9                   	leaveq 
  8004201b3c:	c3                   	retq   

0000008004201b3d <page2pa>:

static inline physaddr_t
page2pa(struct PageInfo *pp)
{
  8004201b3d:	55                   	push   %rbp
  8004201b3e:	48 89 e5             	mov    %rsp,%rbp
  8004201b41:	48 83 ec 08          	sub    $0x8,%rsp
  8004201b45:	48 89 7d f8          	mov    %rdi,-0x8(%rbp)
	return page2ppn(pp) << PGSHIFT;
  8004201b49:	48 8b 45 f8          	mov    -0x8(%rbp),%rax
  8004201b4d:	48 89 c7             	mov    %rax,%rdi
  8004201b50:	48 b8 14 1b 20 04 80 	movabs $0x8004201b14,%rax
  8004201b57:	00 00 00 
  8004201b5a:	ff d0                	callq  *%rax
  8004201b5c:	48 c1 e0 0c          	shl    $0xc,%rax
}
  8004201b60:	c9                   	leaveq 
  8004201b61:	c3                   	retq   

0000008004201b62 <pa2page>:

static inline struct PageInfo*
pa2page(physaddr_t pa)
{
  8004201b62:	55                   	push   %rbp
  8004201b63:	48 89 e5             	mov    %rsp,%rbp
  8004201b66:	48 83 ec 10          	sub    $0x10,%rsp
  8004201b6a:	48 89 7d f8          	mov    %rdi,-0x8(%rbp)
	if (PPN(pa) >= npages)
  8004201b6e:	48 8b 45 f8          	mov    -0x8(%rbp),%rax
  8004201b72:	48 c1 e8 0c          	shr    $0xc,%rax
  8004201b76:	48 89 c2             	mov    %rax,%rdx
  8004201b79:	48 b8 f8 f5 6d 04 80 	movabs $0x80046df5f8,%rax
  8004201b80:	00 00 00 
  8004201b83:	48 8b 00             	mov    (%rax),%rax
  8004201b86:	48 39 c2             	cmp    %rax,%rdx
  8004201b89:	72 2a                	jb     8004201bb5 <pa2page+0x53>
		panic("pa2page called with invalid pa");
  8004201b8b:	48 ba c0 f3 21 04 80 	movabs $0x800421f3c0,%rdx
  8004201b92:	00 00 00 
  8004201b95:	be 5a 00 00 00       	mov    $0x5a,%esi
  8004201b9a:	48 bf df f3 21 04 80 	movabs $0x800421f3df,%rdi
  8004201ba1:	00 00 00 
  8004201ba4:	b8 00 00 00 00       	mov    $0x0,%eax
  8004201ba9:	48 b9 d3 04 20 04 80 	movabs $0x80042004d3,%rcx
  8004201bb0:	00 00 00 
  8004201bb3:	ff d1                	callq  *%rcx
	return &pages[PPN(pa)];
  8004201bb5:	48 b8 00 f6 6d 04 80 	movabs $0x80046df600,%rax
  8004201bbc:	00 00 00 
  8004201bbf:	48 8b 00             	mov    (%rax),%rax
  8004201bc2:	48 8b 55 f8          	mov    -0x8(%rbp),%rdx
  8004201bc6:	48 c1 ea 0c          	shr    $0xc,%rdx
  8004201bca:	48 c1 e2 04          	shl    $0x4,%rdx
  8004201bce:	48 01 d0             	add    %rdx,%rax
}
  8004201bd1:	c9                   	leaveq 
  8004201bd2:	c3                   	retq   

0000008004201bd3 <page2kva>:

static inline void*
page2kva(struct PageInfo *pp)
{
  8004201bd3:	55                   	push   %rbp
  8004201bd4:	48 89 e5             	mov    %rsp,%rbp
  8004201bd7:	48 83 ec 20          	sub    $0x20,%rsp
  8004201bdb:	48 89 7d e8          	mov    %rdi,-0x18(%rbp)
	return KADDR(page2pa(pp));
  8004201bdf:	48 8b 45 e8          	mov    -0x18(%rbp),%rax
  8004201be3:	48 89 c7             	mov    %rax,%rdi
  8004201be6:	48 b8 3d 1b 20 04 80 	movabs $0x8004201b3d,%rax
  8004201bed:	00 00 00 
  8004201bf0:	ff d0                	callq  *%rax
  8004201bf2:	48 89 45 f8          	mov    %rax,-0x8(%rbp)
  8004201bf6:	48 8b 45 f8          	mov    -0x8(%rbp),%rax
  8004201bfa:	48 c1 e8 0c          	shr    $0xc,%rax
  8004201bfe:	89 45 f4             	mov    %eax,-0xc(%rbp)
  8004201c01:	8b 55 f4             	mov    -0xc(%rbp),%edx
  8004201c04:	48 b8 f8 f5 6d 04 80 	movabs $0x80046df5f8,%rax
  8004201c0b:	00 00 00 
  8004201c0e:	48 8b 00             	mov    (%rax),%rax
  8004201c11:	48 39 c2             	cmp    %rax,%rdx
  8004201c14:	72 32                	jb     8004201c48 <page2kva+0x75>
  8004201c16:	48 8b 45 f8          	mov    -0x8(%rbp),%rax
  8004201c1a:	48 89 c1             	mov    %rax,%rcx
  8004201c1d:	48 ba f0 f3 21 04 80 	movabs $0x800421f3f0,%rdx
  8004201c24:	00 00 00 
  8004201c27:	be 61 00 00 00       	mov    $0x61,%esi
  8004201c2c:	48 bf df f3 21 04 80 	movabs $0x800421f3df,%rdi
  8004201c33:	00 00 00 
  8004201c36:	b8 00 00 00 00       	mov    $0x0,%eax
  8004201c3b:	49 b8 d3 04 20 04 80 	movabs $0x80042004d3,%r8
  8004201c42:	00 00 00 
  8004201c45:	41 ff d0             	callq  *%r8
  8004201c48:	48 ba 00 00 00 04 80 	movabs $0x8004000000,%rdx
  8004201c4f:	00 00 00 
  8004201c52:	48 8b 45 f8          	mov    -0x8(%rbp),%rax
  8004201c56:	48 01 d0             	add    %rdx,%rax
}
  8004201c59:	c9                   	leaveq 
  8004201c5a:	c3                   	retq   

0000008004201c5b <restrictive_type>:
   uint32_t length_low;
   uint32_t length_high;
   uint32_t type;
 } memory_map_t;

static __inline uint32_t restrictive_type(uint32_t t1, uint32_t t2) {
  8004201c5b:	55                   	push   %rbp
  8004201c5c:	48 89 e5             	mov    %rsp,%rbp
  8004201c5f:	48 83 ec 08          	sub    $0x8,%rsp
  8004201c63:	89 7d fc             	mov    %edi,-0x4(%rbp)
  8004201c66:	89 75 f8             	mov    %esi,-0x8(%rbp)
  if(t1==MB_TYPE_BAD || t2==MB_TYPE_BAD)
  8004201c69:	83 7d fc 05          	cmpl   $0x5,-0x4(%rbp)
  8004201c6d:	74 06                	je     8004201c75 <restrictive_type+0x1a>
  8004201c6f:	83 7d f8 05          	cmpl   $0x5,-0x8(%rbp)
  8004201c73:	75 07                	jne    8004201c7c <restrictive_type+0x21>
    return MB_TYPE_BAD;
  8004201c75:	b8 05 00 00 00       	mov    $0x5,%eax
  8004201c7a:	eb 3e                	jmp    8004201cba <restrictive_type+0x5f>
  else if(t1==MB_TYPE_ACPI_NVS || t2==MB_TYPE_ACPI_NVS)
  8004201c7c:	83 7d fc 04          	cmpl   $0x4,-0x4(%rbp)
  8004201c80:	74 06                	je     8004201c88 <restrictive_type+0x2d>
  8004201c82:	83 7d f8 04          	cmpl   $0x4,-0x8(%rbp)
  8004201c86:	75 07                	jne    8004201c8f <restrictive_type+0x34>
    return MB_TYPE_ACPI_NVS;
  8004201c88:	b8 04 00 00 00       	mov    $0x4,%eax
  8004201c8d:	eb 2b                	jmp    8004201cba <restrictive_type+0x5f>
  else if(t1==MB_TYPE_RESERVED || t2==MB_TYPE_RESERVED)
  8004201c8f:	83 7d fc 02          	cmpl   $0x2,-0x4(%rbp)
  8004201c93:	74 06                	je     8004201c9b <restrictive_type+0x40>
  8004201c95:	83 7d f8 02          	cmpl   $0x2,-0x8(%rbp)
  8004201c99:	75 07                	jne    8004201ca2 <restrictive_type+0x47>
    return MB_TYPE_RESERVED;
  8004201c9b:	b8 02 00 00 00       	mov    $0x2,%eax
  8004201ca0:	eb 18                	jmp    8004201cba <restrictive_type+0x5f>
  else if(t1==MB_TYPE_ACPI_RECLM || t2==MB_TYPE_ACPI_RECLM)
  8004201ca2:	83 7d fc 03          	cmpl   $0x3,-0x4(%rbp)
  8004201ca6:	74 06                	je     8004201cae <restrictive_type+0x53>
  8004201ca8:	83 7d f8 03          	cmpl   $0x3,-0x8(%rbp)
  8004201cac:	75 07                	jne    8004201cb5 <restrictive_type+0x5a>
    return MB_TYPE_ACPI_RECLM;
  8004201cae:	b8 03 00 00 00       	mov    $0x3,%eax
  8004201cb3:	eb 05                	jmp    8004201cba <restrictive_type+0x5f>

  return MB_TYPE_USABLE;
  8004201cb5:	b8 01 00 00 00       	mov    $0x1,%eax
}
  8004201cba:	c9                   	leaveq 
  8004201cbb:	c3                   	retq   

0000008004201cbc <nvram_read>:
// Detect machine's physical memory setup.
// --------------------------------------------------------------

static int
nvram_read(int r)
{
  8004201cbc:	55                   	push   %rbp
  8004201cbd:	48 89 e5             	mov    %rsp,%rbp
  8004201cc0:	53                   	push   %rbx
  8004201cc1:	48 83 ec 18          	sub    $0x18,%rsp
  8004201cc5:	89 7d ec             	mov    %edi,-0x14(%rbp)
	return mc146818_read(r) | (mc146818_read(r + 1) << 8);
  8004201cc8:	8b 45 ec             	mov    -0x14(%rbp),%eax
  8004201ccb:	89 c7                	mov    %eax,%edi
  8004201ccd:	48 b8 69 99 20 04 80 	movabs $0x8004209969,%rax
  8004201cd4:	00 00 00 
  8004201cd7:	ff d0                	callq  *%rax
  8004201cd9:	89 c3                	mov    %eax,%ebx
  8004201cdb:	8b 45 ec             	mov    -0x14(%rbp),%eax
  8004201cde:	83 c0 01             	add    $0x1,%eax
  8004201ce1:	89 c7                	mov    %eax,%edi
  8004201ce3:	48 b8 69 99 20 04 80 	movabs $0x8004209969,%rax
  8004201cea:	00 00 00 
  8004201ced:	ff d0                	callq  *%rax
  8004201cef:	c1 e0 08             	shl    $0x8,%eax
  8004201cf2:	09 d8                	or     %ebx,%eax
}
  8004201cf4:	48 83 c4 18          	add    $0x18,%rsp
  8004201cf8:	5b                   	pop    %rbx
  8004201cf9:	5d                   	pop    %rbp
  8004201cfa:	c3                   	retq   

0000008004201cfb <multiboot_read>:

static void
multiboot_read(multiboot_info_t* mbinfo, size_t* basemem, size_t* extmem) {
  8004201cfb:	55                   	push   %rbp
  8004201cfc:	48 89 e5             	mov    %rsp,%rbp
  8004201cff:	53                   	push   %rbx
  8004201d00:	48 81 ec b8 00 00 00 	sub    $0xb8,%rsp
  8004201d07:	48 89 bd 58 ff ff ff 	mov    %rdi,-0xa8(%rbp)
  8004201d0e:	48 89 b5 50 ff ff ff 	mov    %rsi,-0xb0(%rbp)
  8004201d15:	48 89 95 48 ff ff ff 	mov    %rdx,-0xb8(%rbp)
  8004201d1c:	48 89 e0             	mov    %rsp,%rax
  8004201d1f:	48 89 c3             	mov    %rax,%rbx
	int i;

	memory_map_t* mmap_base = (memory_map_t*)(uintptr_t)mbinfo->mmap_addr;
  8004201d22:	48 8b 85 58 ff ff ff 	mov    -0xa8(%rbp),%rax
  8004201d29:	8b 40 30             	mov    0x30(%rax),%eax
  8004201d2c:	89 c0                	mov    %eax,%eax
  8004201d2e:	48 89 45 d8          	mov    %rax,-0x28(%rbp)
 	memory_map_t* mmap_list[mbinfo->mmap_length/ (sizeof(memory_map_t))];
  8004201d32:	48 8b 85 58 ff ff ff 	mov    -0xa8(%rbp),%rax
  8004201d39:	8b 40 2c             	mov    0x2c(%rax),%eax
  8004201d3c:	ba ab aa aa aa       	mov    $0xaaaaaaab,%edx
  8004201d41:	f7 e2                	mul    %edx
  8004201d43:	89 d0                	mov    %edx,%eax
  8004201d45:	c1 e8 04             	shr    $0x4,%eax
  8004201d48:	89 c0                	mov    %eax,%eax
  8004201d4a:	48 89 c2             	mov    %rax,%rdx
  8004201d4d:	48 83 ea 01          	sub    $0x1,%rdx
  8004201d51:	48 89 55 d0          	mov    %rdx,-0x30(%rbp)
  8004201d55:	49 89 c2             	mov    %rax,%r10
  8004201d58:	41 bb 00 00 00 00    	mov    $0x0,%r11d
  8004201d5e:	49 89 c0             	mov    %rax,%r8
  8004201d61:	41 b9 00 00 00 00    	mov    $0x0,%r9d
  8004201d67:	48 c1 e0 03          	shl    $0x3,%rax
  8004201d6b:	48 8d 50 07          	lea    0x7(%rax),%rdx
  8004201d6f:	b8 10 00 00 00       	mov    $0x10,%eax
  8004201d74:	48 83 e8 01          	sub    $0x1,%rax
  8004201d78:	48 01 d0             	add    %rdx,%rax
  8004201d7b:	be 10 00 00 00       	mov    $0x10,%esi
  8004201d80:	ba 00 00 00 00       	mov    $0x0,%edx
  8004201d85:	48 f7 f6             	div    %rsi
  8004201d88:	48 6b c0 10          	imul   $0x10,%rax,%rax
  8004201d8c:	48 29 c4             	sub    %rax,%rsp
  8004201d8f:	48 89 e0             	mov    %rsp,%rax
  8004201d92:	48 83 c0 07          	add    $0x7,%rax
  8004201d96:	48 c1 e8 03          	shr    $0x3,%rax
  8004201d9a:	48 c1 e0 03          	shl    $0x3,%rax
  8004201d9e:	48 89 45 c8          	mov    %rax,-0x38(%rbp)

	cprintf("\ne820 MEMORY MAP\n");
  8004201da2:	48 bf 13 f4 21 04 80 	movabs $0x800421f413,%rdi
  8004201da9:	00 00 00 
  8004201dac:	b8 00 00 00 00       	mov    $0x0,%eax
  8004201db1:	48 ba eb 9c 20 04 80 	movabs $0x8004209ceb,%rdx
  8004201db8:	00 00 00 
  8004201dbb:	ff d2                	callq  *%rdx
	for(i = 0; i < (mbinfo->mmap_length / (sizeof(memory_map_t))); i++) {
  8004201dbd:	c7 45 ec 00 00 00 00 	movl   $0x0,-0x14(%rbp)
  8004201dc4:	e9 6c 01 00 00       	jmpq   8004201f35 <multiboot_read+0x23a>
		memory_map_t* mmap = &mmap_base[i];
  8004201dc9:	8b 45 ec             	mov    -0x14(%rbp),%eax
  8004201dcc:	48 63 d0             	movslq %eax,%rdx
  8004201dcf:	48 89 d0             	mov    %rdx,%rax
  8004201dd2:	48 01 c0             	add    %rax,%rax
  8004201dd5:	48 01 d0             	add    %rdx,%rax
  8004201dd8:	48 c1 e0 03          	shl    $0x3,%rax
  8004201ddc:	48 89 c2             	mov    %rax,%rdx
  8004201ddf:	48 8b 45 d8          	mov    -0x28(%rbp),%rax
  8004201de3:	48 01 d0             	add    %rdx,%rax
  8004201de6:	48 89 45 c0          	mov    %rax,-0x40(%rbp)
		uint64_t addr = APPEND_HILO(mmap->base_addr_high, mmap->base_addr_low);
  8004201dea:	48 8b 45 c0          	mov    -0x40(%rbp),%rax
  8004201dee:	8b 40 08             	mov    0x8(%rax),%eax
  8004201df1:	89 c0                	mov    %eax,%eax
  8004201df3:	48 c1 e0 20          	shl    $0x20,%rax
  8004201df7:	48 89 c2             	mov    %rax,%rdx
  8004201dfa:	48 8b 45 c0          	mov    -0x40(%rbp),%rax
  8004201dfe:	8b 40 04             	mov    0x4(%rax),%eax
  8004201e01:	89 c0                	mov    %eax,%eax
  8004201e03:	48 01 d0             	add    %rdx,%rax
  8004201e06:	48 89 45 b8          	mov    %rax,-0x48(%rbp)
		uint64_t len = APPEND_HILO(mmap->length_high, mmap->length_low);
  8004201e0a:	48 8b 45 c0          	mov    -0x40(%rbp),%rax
  8004201e0e:	8b 40 10             	mov    0x10(%rax),%eax
  8004201e11:	89 c0                	mov    %eax,%eax
  8004201e13:	48 c1 e0 20          	shl    $0x20,%rax
  8004201e17:	48 89 c2             	mov    %rax,%rdx
  8004201e1a:	48 8b 45 c0          	mov    -0x40(%rbp),%rax
  8004201e1e:	8b 40 0c             	mov    0xc(%rax),%eax
  8004201e21:	89 c0                	mov    %eax,%eax
  8004201e23:	48 01 d0             	add    %rdx,%rax
  8004201e26:	48 89 45 b0          	mov    %rax,-0x50(%rbp)
        
		cprintf("size: %d, address: 0x%016x, length: 0x%016x, type: %x\n", mmap->size, 
  8004201e2a:	48 8b 45 c0          	mov    -0x40(%rbp),%rax
  8004201e2e:	8b 70 14             	mov    0x14(%rax),%esi
  8004201e31:	48 8b 45 c0          	mov    -0x40(%rbp),%rax
  8004201e35:	8b 00                	mov    (%rax),%eax
  8004201e37:	48 8b 4d b0          	mov    -0x50(%rbp),%rcx
  8004201e3b:	48 8b 55 b8          	mov    -0x48(%rbp),%rdx
  8004201e3f:	41 89 f0             	mov    %esi,%r8d
  8004201e42:	89 c6                	mov    %eax,%esi
  8004201e44:	48 bf 28 f4 21 04 80 	movabs $0x800421f428,%rdi
  8004201e4b:	00 00 00 
  8004201e4e:	b8 00 00 00 00       	mov    $0x0,%eax
  8004201e53:	49 b9 eb 9c 20 04 80 	movabs $0x8004209ceb,%r9
  8004201e5a:	00 00 00 
  8004201e5d:	41 ff d1             	callq  *%r9
			addr, len, mmap->type);

		if(mmap->type > 5 || mmap->type < 1)
  8004201e60:	48 8b 45 c0          	mov    -0x40(%rbp),%rax
  8004201e64:	8b 40 14             	mov    0x14(%rax),%eax
  8004201e67:	83 f8 05             	cmp    $0x5,%eax
  8004201e6a:	77 0b                	ja     8004201e77 <multiboot_read+0x17c>
  8004201e6c:	48 8b 45 c0          	mov    -0x40(%rbp),%rax
  8004201e70:	8b 40 14             	mov    0x14(%rax),%eax
  8004201e73:	85 c0                	test   %eax,%eax
  8004201e75:	75 0b                	jne    8004201e82 <multiboot_read+0x187>
			mmap->type = MB_TYPE_RESERVED;
  8004201e77:	48 8b 45 c0          	mov    -0x40(%rbp),%rax
  8004201e7b:	c7 40 14 02 00 00 00 	movl   $0x2,0x14(%rax)
       
		//Insert into the sorted list
		int j = 0;
  8004201e82:	c7 45 e8 00 00 00 00 	movl   $0x0,-0x18(%rbp)
		for(;j<i;j++) {
  8004201e89:	e9 85 00 00 00       	jmpq   8004201f13 <multiboot_read+0x218>
			memory_map_t* this = mmap_list[j];
  8004201e8e:	48 8b 45 c8          	mov    -0x38(%rbp),%rax
  8004201e92:	8b 55 e8             	mov    -0x18(%rbp),%edx
  8004201e95:	48 63 d2             	movslq %edx,%rdx
  8004201e98:	48 8b 04 d0          	mov    (%rax,%rdx,8),%rax
  8004201e9c:	48 89 45 a8          	mov    %rax,-0x58(%rbp)
			uint64_t this_addr = APPEND_HILO(this->base_addr_high, this->base_addr_low);
  8004201ea0:	48 8b 45 a8          	mov    -0x58(%rbp),%rax
  8004201ea4:	8b 40 08             	mov    0x8(%rax),%eax
  8004201ea7:	89 c0                	mov    %eax,%eax
  8004201ea9:	48 c1 e0 20          	shl    $0x20,%rax
  8004201ead:	48 89 c2             	mov    %rax,%rdx
  8004201eb0:	48 8b 45 a8          	mov    -0x58(%rbp),%rax
  8004201eb4:	8b 40 04             	mov    0x4(%rax),%eax
  8004201eb7:	89 c0                	mov    %eax,%eax
  8004201eb9:	48 01 d0             	add    %rdx,%rax
  8004201ebc:	48 89 45 a0          	mov    %rax,-0x60(%rbp)
			if(this_addr > addr) {
  8004201ec0:	48 8b 45 a0          	mov    -0x60(%rbp),%rax
  8004201ec4:	48 3b 45 b8          	cmp    -0x48(%rbp),%rax
  8004201ec8:	76 45                	jbe    8004201f0f <multiboot_read+0x214>
				int last = i+1;
  8004201eca:	8b 45 ec             	mov    -0x14(%rbp),%eax
  8004201ecd:	83 c0 01             	add    $0x1,%eax
  8004201ed0:	89 45 e4             	mov    %eax,-0x1c(%rbp)
				while(last != j) {
  8004201ed3:	eb 30                	jmp    8004201f05 <multiboot_read+0x20a>
					*(mmap_list + last) = *(mmap_list + last - 1);
  8004201ed5:	48 8b 45 c8          	mov    -0x38(%rbp),%rax
  8004201ed9:	8b 55 e4             	mov    -0x1c(%rbp),%edx
  8004201edc:	48 63 d2             	movslq %edx,%rdx
  8004201edf:	48 c1 e2 03          	shl    $0x3,%rdx
  8004201ee3:	48 01 c2             	add    %rax,%rdx
  8004201ee6:	48 8b 45 c8          	mov    -0x38(%rbp),%rax
  8004201eea:	8b 4d e4             	mov    -0x1c(%rbp),%ecx
  8004201eed:	48 63 c9             	movslq %ecx,%rcx
  8004201ef0:	48 c1 e1 03          	shl    $0x3,%rcx
  8004201ef4:	48 83 e9 08          	sub    $0x8,%rcx
  8004201ef8:	48 01 c8             	add    %rcx,%rax
  8004201efb:	48 8b 00             	mov    (%rax),%rax
  8004201efe:	48 89 02             	mov    %rax,(%rdx)
					last--;
  8004201f01:	83 6d e4 01          	subl   $0x1,-0x1c(%rbp)
		for(;j<i;j++) {
			memory_map_t* this = mmap_list[j];
			uint64_t this_addr = APPEND_HILO(this->base_addr_high, this->base_addr_low);
			if(this_addr > addr) {
				int last = i+1;
				while(last != j) {
  8004201f05:	8b 45 e4             	mov    -0x1c(%rbp),%eax
  8004201f08:	3b 45 e8             	cmp    -0x18(%rbp),%eax
  8004201f0b:	75 c8                	jne    8004201ed5 <multiboot_read+0x1da>
					*(mmap_list + last) = *(mmap_list + last - 1);
					last--;
				}
				break; 
  8004201f0d:	eb 10                	jmp    8004201f1f <multiboot_read+0x224>
		if(mmap->type > 5 || mmap->type < 1)
			mmap->type = MB_TYPE_RESERVED;
       
		//Insert into the sorted list
		int j = 0;
		for(;j<i;j++) {
  8004201f0f:	83 45 e8 01          	addl   $0x1,-0x18(%rbp)
  8004201f13:	8b 45 e8             	mov    -0x18(%rbp),%eax
  8004201f16:	3b 45 ec             	cmp    -0x14(%rbp),%eax
  8004201f19:	0f 8c 6f ff ff ff    	jl     8004201e8e <multiboot_read+0x193>
					last--;
				}
				break; 
			}
		}
		mmap_list[j] = mmap;  
  8004201f1f:	48 8b 45 c8          	mov    -0x38(%rbp),%rax
  8004201f23:	8b 55 e8             	mov    -0x18(%rbp),%edx
  8004201f26:	48 63 d2             	movslq %edx,%rdx
  8004201f29:	48 8b 4d c0          	mov    -0x40(%rbp),%rcx
  8004201f2d:	48 89 0c d0          	mov    %rcx,(%rax,%rdx,8)

	memory_map_t* mmap_base = (memory_map_t*)(uintptr_t)mbinfo->mmap_addr;
 	memory_map_t* mmap_list[mbinfo->mmap_length/ (sizeof(memory_map_t))];

	cprintf("\ne820 MEMORY MAP\n");
	for(i = 0; i < (mbinfo->mmap_length / (sizeof(memory_map_t))); i++) {
  8004201f31:	83 45 ec 01          	addl   $0x1,-0x14(%rbp)
  8004201f35:	8b 45 ec             	mov    -0x14(%rbp),%eax
  8004201f38:	48 63 c8             	movslq %eax,%rcx
  8004201f3b:	48 8b 85 58 ff ff ff 	mov    -0xa8(%rbp),%rax
  8004201f42:	8b 40 2c             	mov    0x2c(%rax),%eax
  8004201f45:	ba ab aa aa aa       	mov    $0xaaaaaaab,%edx
  8004201f4a:	f7 e2                	mul    %edx
  8004201f4c:	89 d0                	mov    %edx,%eax
  8004201f4e:	c1 e8 04             	shr    $0x4,%eax
  8004201f51:	89 c0                	mov    %eax,%eax
  8004201f53:	48 39 c1             	cmp    %rax,%rcx
  8004201f56:	0f 82 6d fe ff ff    	jb     8004201dc9 <multiboot_read+0xce>
				break; 
			}
		}
		mmap_list[j] = mmap;  
	}
	cprintf("\n");
  8004201f5c:	48 bf 5f f4 21 04 80 	movabs $0x800421f45f,%rdi
  8004201f63:	00 00 00 
  8004201f66:	b8 00 00 00 00       	mov    $0x0,%eax
  8004201f6b:	48 ba eb 9c 20 04 80 	movabs $0x8004209ceb,%rdx
  8004201f72:	00 00 00 
  8004201f75:	ff d2                	callq  *%rdx
    
	// Sanitize the list
	for(i=1;i < (mbinfo->mmap_length / (sizeof(memory_map_t))); i++) {
  8004201f77:	c7 45 ec 01 00 00 00 	movl   $0x1,-0x14(%rbp)
  8004201f7e:	e9 93 01 00 00       	jmpq   8004202116 <multiboot_read+0x41b>
		memory_map_t* prev = mmap_list[i-1];
  8004201f83:	8b 45 ec             	mov    -0x14(%rbp),%eax
  8004201f86:	8d 50 ff             	lea    -0x1(%rax),%edx
  8004201f89:	48 8b 45 c8          	mov    -0x38(%rbp),%rax
  8004201f8d:	48 63 d2             	movslq %edx,%rdx
  8004201f90:	48 8b 04 d0          	mov    (%rax,%rdx,8),%rax
  8004201f94:	48 89 45 98          	mov    %rax,-0x68(%rbp)
		memory_map_t* this = mmap_list[i];
  8004201f98:	48 8b 45 c8          	mov    -0x38(%rbp),%rax
  8004201f9c:	8b 55 ec             	mov    -0x14(%rbp),%edx
  8004201f9f:	48 63 d2             	movslq %edx,%rdx
  8004201fa2:	48 8b 04 d0          	mov    (%rax,%rdx,8),%rax
  8004201fa6:	48 89 45 90          	mov    %rax,-0x70(%rbp)

		uint64_t this_addr = APPEND_HILO(this->base_addr_high, this->base_addr_low);
  8004201faa:	48 8b 45 90          	mov    -0x70(%rbp),%rax
  8004201fae:	8b 40 08             	mov    0x8(%rax),%eax
  8004201fb1:	89 c0                	mov    %eax,%eax
  8004201fb3:	48 c1 e0 20          	shl    $0x20,%rax
  8004201fb7:	48 89 c2             	mov    %rax,%rdx
  8004201fba:	48 8b 45 90          	mov    -0x70(%rbp),%rax
  8004201fbe:	8b 40 04             	mov    0x4(%rax),%eax
  8004201fc1:	89 c0                	mov    %eax,%eax
  8004201fc3:	48 01 d0             	add    %rdx,%rax
  8004201fc6:	48 89 45 88          	mov    %rax,-0x78(%rbp)
		uint64_t prev_addr = APPEND_HILO(prev->base_addr_high, prev->base_addr_low);
  8004201fca:	48 8b 45 98          	mov    -0x68(%rbp),%rax
  8004201fce:	8b 40 08             	mov    0x8(%rax),%eax
  8004201fd1:	89 c0                	mov    %eax,%eax
  8004201fd3:	48 c1 e0 20          	shl    $0x20,%rax
  8004201fd7:	48 89 c2             	mov    %rax,%rdx
  8004201fda:	48 8b 45 98          	mov    -0x68(%rbp),%rax
  8004201fde:	8b 40 04             	mov    0x4(%rax),%eax
  8004201fe1:	89 c0                	mov    %eax,%eax
  8004201fe3:	48 01 d0             	add    %rdx,%rax
  8004201fe6:	48 89 45 80          	mov    %rax,-0x80(%rbp)
		uint64_t prev_length = APPEND_HILO(prev->length_high, prev->length_low);
  8004201fea:	48 8b 45 98          	mov    -0x68(%rbp),%rax
  8004201fee:	8b 40 10             	mov    0x10(%rax),%eax
  8004201ff1:	89 c0                	mov    %eax,%eax
  8004201ff3:	48 c1 e0 20          	shl    $0x20,%rax
  8004201ff7:	48 89 c2             	mov    %rax,%rdx
  8004201ffa:	48 8b 45 98          	mov    -0x68(%rbp),%rax
  8004201ffe:	8b 40 0c             	mov    0xc(%rax),%eax
  8004202001:	89 c0                	mov    %eax,%eax
  8004202003:	48 01 d0             	add    %rdx,%rax
  8004202006:	48 89 85 78 ff ff ff 	mov    %rax,-0x88(%rbp)
		uint64_t this_length = APPEND_HILO(this->length_high, this->length_low);
  800420200d:	48 8b 45 90          	mov    -0x70(%rbp),%rax
  8004202011:	8b 40 10             	mov    0x10(%rax),%eax
  8004202014:	89 c0                	mov    %eax,%eax
  8004202016:	48 c1 e0 20          	shl    $0x20,%rax
  800420201a:	48 89 c2             	mov    %rax,%rdx
  800420201d:	48 8b 45 90          	mov    -0x70(%rbp),%rax
  8004202021:	8b 40 0c             	mov    0xc(%rax),%eax
  8004202024:	89 c0                	mov    %eax,%eax
  8004202026:	48 01 d0             	add    %rdx,%rax
  8004202029:	48 89 85 70 ff ff ff 	mov    %rax,-0x90(%rbp)

		// Merge adjacent regions with same type
		if(prev_addr + prev_length == this_addr && prev->type == this->type) {
  8004202030:	48 8b 55 80          	mov    -0x80(%rbp),%rdx
  8004202034:	48 8b 85 78 ff ff ff 	mov    -0x88(%rbp),%rax
  800420203b:	48 01 d0             	add    %rdx,%rax
  800420203e:	48 3b 45 88          	cmp    -0x78(%rbp),%rax
  8004202042:	75 7c                	jne    80042020c0 <multiboot_read+0x3c5>
  8004202044:	48 8b 45 98          	mov    -0x68(%rbp),%rax
  8004202048:	8b 50 14             	mov    0x14(%rax),%edx
  800420204b:	48 8b 45 90          	mov    -0x70(%rbp),%rax
  800420204f:	8b 40 14             	mov    0x14(%rax),%eax
  8004202052:	39 c2                	cmp    %eax,%edx
  8004202054:	75 6a                	jne    80042020c0 <multiboot_read+0x3c5>
			this->length_low = (uint32_t)prev_length + this_length;
  8004202056:	48 8b 85 78 ff ff ff 	mov    -0x88(%rbp),%rax
  800420205d:	89 c2                	mov    %eax,%edx
  800420205f:	48 8b 85 70 ff ff ff 	mov    -0x90(%rbp),%rax
  8004202066:	01 c2                	add    %eax,%edx
  8004202068:	48 8b 45 90          	mov    -0x70(%rbp),%rax
  800420206c:	89 50 0c             	mov    %edx,0xc(%rax)
			this->length_high = (uint32_t)((prev_length + this_length)>>32);
  800420206f:	48 8b 95 78 ff ff ff 	mov    -0x88(%rbp),%rdx
  8004202076:	48 8b 85 70 ff ff ff 	mov    -0x90(%rbp),%rax
  800420207d:	48 01 d0             	add    %rdx,%rax
  8004202080:	48 c1 e8 20          	shr    $0x20,%rax
  8004202084:	89 c2                	mov    %eax,%edx
  8004202086:	48 8b 45 90          	mov    -0x70(%rbp),%rax
  800420208a:	89 50 10             	mov    %edx,0x10(%rax)
			this->base_addr_low = prev->base_addr_low;
  800420208d:	48 8b 45 98          	mov    -0x68(%rbp),%rax
  8004202091:	8b 50 04             	mov    0x4(%rax),%edx
  8004202094:	48 8b 45 90          	mov    -0x70(%rbp),%rax
  8004202098:	89 50 04             	mov    %edx,0x4(%rax)
			this->base_addr_high = prev->base_addr_high;
  800420209b:	48 8b 45 98          	mov    -0x68(%rbp),%rax
  800420209f:	8b 50 08             	mov    0x8(%rax),%edx
  80042020a2:	48 8b 45 90          	mov    -0x70(%rbp),%rax
  80042020a6:	89 50 08             	mov    %edx,0x8(%rax)
			mmap_list[i-1] = NULL;
  80042020a9:	8b 45 ec             	mov    -0x14(%rbp),%eax
  80042020ac:	8d 50 ff             	lea    -0x1(%rax),%edx
  80042020af:	48 8b 45 c8          	mov    -0x38(%rbp),%rax
  80042020b3:	48 63 d2             	movslq %edx,%rdx
  80042020b6:	48 c7 04 d0 00 00 00 	movq   $0x0,(%rax,%rdx,8)
  80042020bd:	00 
  80042020be:	eb 52                	jmp    8004202112 <multiboot_read+0x417>
		} else if(prev_addr + prev_length > this_addr) {
  80042020c0:	48 8b 55 80          	mov    -0x80(%rbp),%rdx
  80042020c4:	48 8b 85 78 ff ff ff 	mov    -0x88(%rbp),%rax
  80042020cb:	48 01 d0             	add    %rdx,%rax
  80042020ce:	48 3b 45 88          	cmp    -0x78(%rbp),%rax
  80042020d2:	76 3e                	jbe    8004202112 <multiboot_read+0x417>
			//Overlapping regions
			uint32_t type = restrictive_type(prev->type, this->type);
  80042020d4:	48 8b 45 90          	mov    -0x70(%rbp),%rax
  80042020d8:	8b 50 14             	mov    0x14(%rax),%edx
  80042020db:	48 8b 45 98          	mov    -0x68(%rbp),%rax
  80042020df:	8b 40 14             	mov    0x14(%rax),%eax
  80042020e2:	89 d6                	mov    %edx,%esi
  80042020e4:	89 c7                	mov    %eax,%edi
  80042020e6:	48 b8 5b 1c 20 04 80 	movabs $0x8004201c5b,%rax
  80042020ed:	00 00 00 
  80042020f0:	ff d0                	callq  *%rax
  80042020f2:	89 85 6c ff ff ff    	mov    %eax,-0x94(%rbp)
			prev->type = type;
  80042020f8:	48 8b 45 98          	mov    -0x68(%rbp),%rax
  80042020fc:	8b 95 6c ff ff ff    	mov    -0x94(%rbp),%edx
  8004202102:	89 50 14             	mov    %edx,0x14(%rax)
			this->type = type;
  8004202105:	48 8b 45 90          	mov    -0x70(%rbp),%rax
  8004202109:	8b 95 6c ff ff ff    	mov    -0x94(%rbp),%edx
  800420210f:	89 50 14             	mov    %edx,0x14(%rax)
		mmap_list[j] = mmap;  
	}
	cprintf("\n");
    
	// Sanitize the list
	for(i=1;i < (mbinfo->mmap_length / (sizeof(memory_map_t))); i++) {
  8004202112:	83 45 ec 01          	addl   $0x1,-0x14(%rbp)
  8004202116:	8b 45 ec             	mov    -0x14(%rbp),%eax
  8004202119:	48 63 c8             	movslq %eax,%rcx
  800420211c:	48 8b 85 58 ff ff ff 	mov    -0xa8(%rbp),%rax
  8004202123:	8b 40 2c             	mov    0x2c(%rax),%eax
  8004202126:	ba ab aa aa aa       	mov    $0xaaaaaaab,%edx
  800420212b:	f7 e2                	mul    %edx
  800420212d:	89 d0                	mov    %edx,%eax
  800420212f:	c1 e8 04             	shr    $0x4,%eax
  8004202132:	89 c0                	mov    %eax,%eax
  8004202134:	48 39 c1             	cmp    %rax,%rcx
  8004202137:	0f 82 46 fe ff ff    	jb     8004201f83 <multiboot_read+0x288>
			prev->type = type;
			this->type = type;
		}
	}

	for(i=0;i < (mbinfo->mmap_length / (sizeof(memory_map_t))); i++) {
  800420213d:	c7 45 ec 00 00 00 00 	movl   $0x0,-0x14(%rbp)
  8004202144:	e9 dc 00 00 00       	jmpq   8004202225 <multiboot_read+0x52a>
		memory_map_t* mmap = mmap_list[i];
  8004202149:	48 8b 45 c8          	mov    -0x38(%rbp),%rax
  800420214d:	8b 55 ec             	mov    -0x14(%rbp),%edx
  8004202150:	48 63 d2             	movslq %edx,%rdx
  8004202153:	48 8b 04 d0          	mov    (%rax,%rdx,8),%rax
  8004202157:	48 89 85 60 ff ff ff 	mov    %rax,-0xa0(%rbp)
		if(mmap) {
  800420215e:	48 83 bd 60 ff ff ff 	cmpq   $0x0,-0xa0(%rbp)
  8004202165:	00 
  8004202166:	0f 84 b5 00 00 00    	je     8004202221 <multiboot_read+0x526>
			if(mmap->type == MB_TYPE_USABLE || mmap->type == MB_TYPE_ACPI_RECLM) {
  800420216c:	48 8b 85 60 ff ff ff 	mov    -0xa0(%rbp),%rax
  8004202173:	8b 40 14             	mov    0x14(%rax),%eax
  8004202176:	83 f8 01             	cmp    $0x1,%eax
  8004202179:	74 13                	je     800420218e <multiboot_read+0x493>
  800420217b:	48 8b 85 60 ff ff ff 	mov    -0xa0(%rbp),%rax
  8004202182:	8b 40 14             	mov    0x14(%rax),%eax
  8004202185:	83 f8 03             	cmp    $0x3,%eax
  8004202188:	0f 85 93 00 00 00    	jne    8004202221 <multiboot_read+0x526>
				if(mmap->base_addr_low < 0x100000 && mmap->base_addr_high == 0)
  800420218e:	48 8b 85 60 ff ff ff 	mov    -0xa0(%rbp),%rax
  8004202195:	8b 40 04             	mov    0x4(%rax),%eax
  8004202198:	3d ff ff 0f 00       	cmp    $0xfffff,%eax
  800420219d:	77 49                	ja     80042021e8 <multiboot_read+0x4ed>
  800420219f:	48 8b 85 60 ff ff ff 	mov    -0xa0(%rbp),%rax
  80042021a6:	8b 40 08             	mov    0x8(%rax),%eax
  80042021a9:	85 c0                	test   %eax,%eax
  80042021ab:	75 3b                	jne    80042021e8 <multiboot_read+0x4ed>
					*basemem += APPEND_HILO(mmap->length_high, mmap->length_low);
  80042021ad:	48 8b 85 50 ff ff ff 	mov    -0xb0(%rbp),%rax
  80042021b4:	48 8b 10             	mov    (%rax),%rdx
  80042021b7:	48 8b 85 60 ff ff ff 	mov    -0xa0(%rbp),%rax
  80042021be:	8b 40 10             	mov    0x10(%rax),%eax
  80042021c1:	89 c0                	mov    %eax,%eax
  80042021c3:	48 c1 e0 20          	shl    $0x20,%rax
  80042021c7:	48 89 c1             	mov    %rax,%rcx
  80042021ca:	48 8b 85 60 ff ff ff 	mov    -0xa0(%rbp),%rax
  80042021d1:	8b 40 0c             	mov    0xc(%rax),%eax
  80042021d4:	89 c0                	mov    %eax,%eax
  80042021d6:	48 01 c8             	add    %rcx,%rax
  80042021d9:	48 01 c2             	add    %rax,%rdx
  80042021dc:	48 8b 85 50 ff ff ff 	mov    -0xb0(%rbp),%rax
  80042021e3:	48 89 10             	mov    %rdx,(%rax)
  80042021e6:	eb 39                	jmp    8004202221 <multiboot_read+0x526>
				else
					*extmem += APPEND_HILO(mmap->length_high, mmap->length_low);
  80042021e8:	48 8b 85 48 ff ff ff 	mov    -0xb8(%rbp),%rax
  80042021ef:	48 8b 10             	mov    (%rax),%rdx
  80042021f2:	48 8b 85 60 ff ff ff 	mov    -0xa0(%rbp),%rax
  80042021f9:	8b 40 10             	mov    0x10(%rax),%eax
  80042021fc:	89 c0                	mov    %eax,%eax
  80042021fe:	48 c1 e0 20          	shl    $0x20,%rax
  8004202202:	48 89 c1             	mov    %rax,%rcx
  8004202205:	48 8b 85 60 ff ff ff 	mov    -0xa0(%rbp),%rax
  800420220c:	8b 40 0c             	mov    0xc(%rax),%eax
  800420220f:	89 c0                	mov    %eax,%eax
  8004202211:	48 01 c8             	add    %rcx,%rax
  8004202214:	48 01 c2             	add    %rax,%rdx
  8004202217:	48 8b 85 48 ff ff ff 	mov    -0xb8(%rbp),%rax
  800420221e:	48 89 10             	mov    %rdx,(%rax)
			prev->type = type;
			this->type = type;
		}
	}

	for(i=0;i < (mbinfo->mmap_length / (sizeof(memory_map_t))); i++) {
  8004202221:	83 45 ec 01          	addl   $0x1,-0x14(%rbp)
  8004202225:	8b 45 ec             	mov    -0x14(%rbp),%eax
  8004202228:	48 63 c8             	movslq %eax,%rcx
  800420222b:	48 8b 85 58 ff ff ff 	mov    -0xa8(%rbp),%rax
  8004202232:	8b 40 2c             	mov    0x2c(%rax),%eax
  8004202235:	ba ab aa aa aa       	mov    $0xaaaaaaab,%edx
  800420223a:	f7 e2                	mul    %edx
  800420223c:	89 d0                	mov    %edx,%eax
  800420223e:	c1 e8 04             	shr    $0x4,%eax
  8004202241:	89 c0                	mov    %eax,%eax
  8004202243:	48 39 c1             	cmp    %rax,%rcx
  8004202246:	0f 82 fd fe ff ff    	jb     8004202149 <multiboot_read+0x44e>
  800420224c:	48 89 dc             	mov    %rbx,%rsp
				else
					*extmem += APPEND_HILO(mmap->length_high, mmap->length_low);
			}
		}
	}
}
  800420224f:	90                   	nop
  8004202250:	48 8b 5d f8          	mov    -0x8(%rbp),%rbx
  8004202254:	c9                   	leaveq 
  8004202255:	c3                   	retq   

0000008004202256 <i386_detect_memory>:

static void
i386_detect_memory(void)
{
  8004202256:	55                   	push   %rbp
  8004202257:	48 89 e5             	mov    %rsp,%rbp
  800420225a:	48 83 ec 50          	sub    $0x50,%rsp
	size_t npages_extmem;
	size_t basemem = 0;
  800420225e:	48 c7 45 c0 00 00 00 	movq   $0x0,-0x40(%rbp)
  8004202265:	00 
	size_t extmem = 0;
  8004202266:	48 c7 45 b8 00 00 00 	movq   $0x0,-0x48(%rbp)
  800420226d:	00 

	// Check if the bootloader passed us a multiboot structure
	extern char multiboot_info[];
	uintptr_t* mbp = (uintptr_t*)multiboot_info;
  800420226e:	48 b8 00 70 10 00 00 	movabs $0x107000,%rax
  8004202275:	00 00 00 
  8004202278:	48 89 45 f0          	mov    %rax,-0x10(%rbp)
	multiboot_info_t * mbinfo = (multiboot_info_t*)*mbp;
  800420227c:	48 8b 45 f0          	mov    -0x10(%rbp),%rax
  8004202280:	48 8b 00             	mov    (%rax),%rax
  8004202283:	48 89 45 e8          	mov    %rax,-0x18(%rbp)

	if(mbinfo && (mbinfo->flags & MB_FLAG_MMAP)) {
  8004202287:	48 83 7d e8 00       	cmpq   $0x0,-0x18(%rbp)
  800420228c:	74 2d                	je     80042022bb <i386_detect_memory+0x65>
  800420228e:	48 8b 45 e8          	mov    -0x18(%rbp),%rax
  8004202292:	8b 00                	mov    (%rax),%eax
  8004202294:	83 e0 40             	and    $0x40,%eax
  8004202297:	85 c0                	test   %eax,%eax
  8004202299:	74 20                	je     80042022bb <i386_detect_memory+0x65>
		multiboot_read(mbinfo, &basemem, &extmem);
  800420229b:	48 8d 55 b8          	lea    -0x48(%rbp),%rdx
  800420229f:	48 8d 4d c0          	lea    -0x40(%rbp),%rcx
  80042022a3:	48 8b 45 e8          	mov    -0x18(%rbp),%rax
  80042022a7:	48 89 ce             	mov    %rcx,%rsi
  80042022aa:	48 89 c7             	mov    %rax,%rdi
  80042022ad:	48 b8 fb 1c 20 04 80 	movabs $0x8004201cfb,%rax
  80042022b4:	00 00 00 
  80042022b7:	ff d0                	callq  *%rax
  80042022b9:	eb 34                	jmp    80042022ef <i386_detect_memory+0x99>
	} else {
		basemem = (nvram_read(NVRAM_BASELO) * 1024);
  80042022bb:	bf 15 00 00 00       	mov    $0x15,%edi
  80042022c0:	48 b8 bc 1c 20 04 80 	movabs $0x8004201cbc,%rax
  80042022c7:	00 00 00 
  80042022ca:	ff d0                	callq  *%rax
  80042022cc:	c1 e0 0a             	shl    $0xa,%eax
  80042022cf:	48 98                	cltq   
  80042022d1:	48 89 45 c0          	mov    %rax,-0x40(%rbp)
		extmem = (nvram_read(NVRAM_EXTLO) * 1024);
  80042022d5:	bf 17 00 00 00       	mov    $0x17,%edi
  80042022da:	48 b8 bc 1c 20 04 80 	movabs $0x8004201cbc,%rax
  80042022e1:	00 00 00 
  80042022e4:	ff d0                	callq  *%rax
  80042022e6:	c1 e0 0a             	shl    $0xa,%eax
  80042022e9:	48 98                	cltq   
  80042022eb:	48 89 45 b8          	mov    %rax,-0x48(%rbp)
	}

	assert(basemem);
  80042022ef:	48 8b 45 c0          	mov    -0x40(%rbp),%rax
  80042022f3:	48 85 c0             	test   %rax,%rax
  80042022f6:	75 35                	jne    800420232d <i386_detect_memory+0xd7>
  80042022f8:	48 b9 61 f4 21 04 80 	movabs $0x800421f461,%rcx
  80042022ff:	00 00 00 
  8004202302:	48 ba 69 f4 21 04 80 	movabs $0x800421f469,%rdx
  8004202309:	00 00 00 
  800420230c:	be 89 00 00 00       	mov    $0x89,%esi
  8004202311:	48 bf 7e f4 21 04 80 	movabs $0x800421f47e,%rdi
  8004202318:	00 00 00 
  800420231b:	b8 00 00 00 00       	mov    $0x0,%eax
  8004202320:	49 b8 d3 04 20 04 80 	movabs $0x80042004d3,%r8
  8004202327:	00 00 00 
  800420232a:	41 ff d0             	callq  *%r8

	npages_basemem = basemem / PGSIZE;
  800420232d:	48 8b 45 c0          	mov    -0x40(%rbp),%rax
  8004202331:	48 c1 e8 0c          	shr    $0xc,%rax
  8004202335:	48 89 c2             	mov    %rax,%rdx
  8004202338:	48 b8 30 02 4e 04 80 	movabs $0x80044e0230,%rax
  800420233f:	00 00 00 
  8004202342:	48 89 10             	mov    %rdx,(%rax)
	npages_extmem = extmem / PGSIZE;
  8004202345:	48 8b 45 b8          	mov    -0x48(%rbp),%rax
  8004202349:	48 c1 e8 0c          	shr    $0xc,%rax
  800420234d:	48 89 45 f8          	mov    %rax,-0x8(%rbp)
	
	if(nvram_read(NVRAM_EXTLO) == 0xffff) {
  8004202351:	bf 17 00 00 00       	mov    $0x17,%edi
  8004202356:	48 b8 bc 1c 20 04 80 	movabs $0x8004201cbc,%rax
  800420235d:	00 00 00 
  8004202360:	ff d0                	callq  *%rax
  8004202362:	3d ff ff 00 00       	cmp    $0xffff,%eax
  8004202367:	75 2c                	jne    8004202395 <i386_detect_memory+0x13f>
		// EXTMEM > 16M in blocks of 64k
		size_t pextmem = nvram_read(NVRAM_EXTGT16LO) * (64 * 1024);
  8004202369:	bf 34 00 00 00       	mov    $0x34,%edi
  800420236e:	48 b8 bc 1c 20 04 80 	movabs $0x8004201cbc,%rax
  8004202375:	00 00 00 
  8004202378:	ff d0                	callq  *%rax
  800420237a:	c1 e0 10             	shl    $0x10,%eax
  800420237d:	48 98                	cltq   
  800420237f:	48 89 45 e0          	mov    %rax,-0x20(%rbp)
		npages_extmem = ((16 * 1024 * 1024) + pextmem - (1 * 1024 * 1024)) / PGSIZE;
  8004202383:	48 8b 45 e0          	mov    -0x20(%rbp),%rax
  8004202387:	48 05 00 00 f0 00    	add    $0xf00000,%rax
  800420238d:	48 c1 e8 0c          	shr    $0xc,%rax
  8004202391:	48 89 45 f8          	mov    %rax,-0x8(%rbp)
	}
	
	// Calculate the number of physical pages available in both base
	// and extended memory.
	if (npages_extmem)
  8004202395:	48 83 7d f8 00       	cmpq   $0x0,-0x8(%rbp)
  800420239a:	74 1a                	je     80042023b6 <i386_detect_memory+0x160>
		npages = (EXTPHYSMEM / PGSIZE) + npages_extmem;
  800420239c:	48 8b 45 f8          	mov    -0x8(%rbp),%rax
  80042023a0:	48 8d 90 00 01 00 00 	lea    0x100(%rax),%rdx
  80042023a7:	48 b8 f8 f5 6d 04 80 	movabs $0x80046df5f8,%rax
  80042023ae:	00 00 00 
  80042023b1:	48 89 10             	mov    %rdx,(%rax)
  80042023b4:	eb 1a                	jmp    80042023d0 <i386_detect_memory+0x17a>
	else
		npages = npages_basemem;
  80042023b6:	48 b8 30 02 4e 04 80 	movabs $0x80044e0230,%rax
  80042023bd:	00 00 00 
  80042023c0:	48 8b 10             	mov    (%rax),%rdx
  80042023c3:	48 b8 f8 f5 6d 04 80 	movabs $0x80046df5f8,%rax
  80042023ca:	00 00 00 
  80042023cd:	48 89 10             	mov    %rdx,(%rax)

	cprintf("Physical memory: %uM available, base = %uK, extended = %uK, npages = %d\n",
  80042023d0:	48 b8 f8 f5 6d 04 80 	movabs $0x80046df5f8,%rax
  80042023d7:	00 00 00 
  80042023da:	48 8b 30             	mov    (%rax),%rsi
		npages * PGSIZE / (1024 * 1024),
		npages_basemem * PGSIZE / 1024,
		npages_extmem * PGSIZE / 1024,
  80042023dd:	48 8b 45 f8          	mov    -0x8(%rbp),%rax
  80042023e1:	48 c1 e0 0c          	shl    $0xc,%rax
	if (npages_extmem)
		npages = (EXTPHYSMEM / PGSIZE) + npages_extmem;
	else
		npages = npages_basemem;

	cprintf("Physical memory: %uM available, base = %uK, extended = %uK, npages = %d\n",
  80042023e5:	48 c1 e8 0a          	shr    $0xa,%rax
  80042023e9:	48 89 c1             	mov    %rax,%rcx
		npages * PGSIZE / (1024 * 1024),
		npages_basemem * PGSIZE / 1024,
  80042023ec:	48 b8 30 02 4e 04 80 	movabs $0x80044e0230,%rax
  80042023f3:	00 00 00 
  80042023f6:	48 8b 00             	mov    (%rax),%rax
  80042023f9:	48 c1 e0 0c          	shl    $0xc,%rax
	if (npages_extmem)
		npages = (EXTPHYSMEM / PGSIZE) + npages_extmem;
	else
		npages = npages_basemem;

	cprintf("Physical memory: %uM available, base = %uK, extended = %uK, npages = %d\n",
  80042023fd:	48 c1 e8 0a          	shr    $0xa,%rax
  8004202401:	48 89 c2             	mov    %rax,%rdx
		npages * PGSIZE / (1024 * 1024),
  8004202404:	48 b8 f8 f5 6d 04 80 	movabs $0x80046df5f8,%rax
  800420240b:	00 00 00 
  800420240e:	48 8b 00             	mov    (%rax),%rax
  8004202411:	48 c1 e0 0c          	shl    $0xc,%rax
	if (npages_extmem)
		npages = (EXTPHYSMEM / PGSIZE) + npages_extmem;
	else
		npages = npages_basemem;

	cprintf("Physical memory: %uM available, base = %uK, extended = %uK, npages = %d\n",
  8004202415:	48 c1 e8 14          	shr    $0x14,%rax
  8004202419:	49 89 f0             	mov    %rsi,%r8
  800420241c:	48 89 c6             	mov    %rax,%rsi
  800420241f:	48 bf 90 f4 21 04 80 	movabs $0x800421f490,%rdi
  8004202426:	00 00 00 
  8004202429:	b8 00 00 00 00       	mov    $0x0,%eax
  800420242e:	49 b9 eb 9c 20 04 80 	movabs $0x8004209ceb,%r9
  8004202435:	00 00 00 
  8004202438:	41 ff d1             	callq  *%r9
	//JOS 64 pages are limited by the size of both the UPAGES
	//  virtual address space, and the range from KERNBASE to UVPT.
	//
	// NB: qemu seems to have a bug that crashes the host system on 13.10 if you try to 
	//     max out memory.
	uint64_t upages_max = (ULIM - UPAGES) / sizeof(struct PageInfo);
  800420243b:	48 c7 45 d8 00 00 32 	movq   $0x320000,-0x28(%rbp)
  8004202442:	00 
	uint64_t kern_mem_max = (UVPT - KERNBASE) / PGSIZE;
  8004202443:	48 c7 45 d0 00 c0 ff 	movq   $0x7ffc000,-0x30(%rbp)
  800420244a:	07 
	cprintf("Pages limited to %llu by upage address range (%uMB), Pages limited to %llu by remapped phys mem (%uMB)\n", 
		upages_max, ((upages_max * PGSIZE) / (1024 * 1024)),
		kern_mem_max, kern_mem_max * PGSIZE / (1024 * 1024));
  800420244b:	48 8b 45 d0          	mov    -0x30(%rbp),%rax
  800420244f:	48 c1 e0 0c          	shl    $0xc,%rax
	//
	// NB: qemu seems to have a bug that crashes the host system on 13.10 if you try to 
	//     max out memory.
	uint64_t upages_max = (ULIM - UPAGES) / sizeof(struct PageInfo);
	uint64_t kern_mem_max = (UVPT - KERNBASE) / PGSIZE;
	cprintf("Pages limited to %llu by upage address range (%uMB), Pages limited to %llu by remapped phys mem (%uMB)\n", 
  8004202453:	48 c1 e8 14          	shr    $0x14,%rax
  8004202457:	48 89 c1             	mov    %rax,%rcx
		upages_max, ((upages_max * PGSIZE) / (1024 * 1024)),
  800420245a:	48 8b 45 d8          	mov    -0x28(%rbp),%rax
  800420245e:	48 c1 e0 0c          	shl    $0xc,%rax
	//
	// NB: qemu seems to have a bug that crashes the host system on 13.10 if you try to 
	//     max out memory.
	uint64_t upages_max = (ULIM - UPAGES) / sizeof(struct PageInfo);
	uint64_t kern_mem_max = (UVPT - KERNBASE) / PGSIZE;
	cprintf("Pages limited to %llu by upage address range (%uMB), Pages limited to %llu by remapped phys mem (%uMB)\n", 
  8004202462:	48 c1 e8 14          	shr    $0x14,%rax
  8004202466:	48 89 c6             	mov    %rax,%rsi
  8004202469:	48 8b 55 d0          	mov    -0x30(%rbp),%rdx
  800420246d:	48 8b 45 d8          	mov    -0x28(%rbp),%rax
  8004202471:	49 89 c8             	mov    %rcx,%r8
  8004202474:	48 89 d1             	mov    %rdx,%rcx
  8004202477:	48 89 f2             	mov    %rsi,%rdx
  800420247a:	48 89 c6             	mov    %rax,%rsi
  800420247d:	48 bf e0 f4 21 04 80 	movabs $0x800421f4e0,%rdi
  8004202484:	00 00 00 
  8004202487:	b8 00 00 00 00       	mov    $0x0,%eax
  800420248c:	49 b9 eb 9c 20 04 80 	movabs $0x8004209ceb,%r9
  8004202493:	00 00 00 
  8004202496:	41 ff d1             	callq  *%r9
		upages_max, ((upages_max * PGSIZE) / (1024 * 1024)),
		kern_mem_max, kern_mem_max * PGSIZE / (1024 * 1024));
	uint64_t max_npages = upages_max < kern_mem_max ? upages_max : kern_mem_max;
  8004202499:	48 8b 45 d8          	mov    -0x28(%rbp),%rax
  800420249d:	48 39 45 d0          	cmp    %rax,-0x30(%rbp)
  80042024a1:	48 0f 46 45 d0       	cmovbe -0x30(%rbp),%rax
  80042024a6:	48 89 45 c8          	mov    %rax,-0x38(%rbp)

	if(npages > max_npages) {
  80042024aa:	48 b8 f8 f5 6d 04 80 	movabs $0x80046df5f8,%rax
  80042024b1:	00 00 00 
  80042024b4:	48 8b 00             	mov    (%rax),%rax
  80042024b7:	48 3b 45 c8          	cmp    -0x38(%rbp),%rax
  80042024bb:	76 3a                	jbe    80042024f7 <i386_detect_memory+0x2a1>
		npages = max_npages - 1024;
  80042024bd:	48 8b 45 c8          	mov    -0x38(%rbp),%rax
  80042024c1:	48 8d 90 00 fc ff ff 	lea    -0x400(%rax),%rdx
  80042024c8:	48 b8 f8 f5 6d 04 80 	movabs $0x80046df5f8,%rax
  80042024cf:	00 00 00 
  80042024d2:	48 89 10             	mov    %rdx,(%rax)
		cprintf("Using only %uK of the available memory.\n", max_npages);
  80042024d5:	48 8b 45 c8          	mov    -0x38(%rbp),%rax
  80042024d9:	48 89 c6             	mov    %rax,%rsi
  80042024dc:	48 bf 48 f5 21 04 80 	movabs $0x800421f548,%rdi
  80042024e3:	00 00 00 
  80042024e6:	b8 00 00 00 00       	mov    $0x0,%eax
  80042024eb:	48 ba eb 9c 20 04 80 	movabs $0x8004209ceb,%rdx
  80042024f2:	00 00 00 
  80042024f5:	ff d2                	callq  *%rdx
	}
}
  80042024f7:	90                   	nop
  80042024f8:	c9                   	leaveq 
  80042024f9:	c3                   	retq   

00000080042024fa <boot_alloc>:
// If we're out of memory, boot_alloc should panic.
// This function may ONLY be used during initialization,
// before the page_free_list list has been set up.
static void *
boot_alloc(uint32_t n)
{
  80042024fa:	55                   	push   %rbp
  80042024fb:	48 89 e5             	mov    %rsp,%rbp
  80042024fe:	48 83 ec 40          	sub    $0x40,%rsp
  8004202502:	89 7d cc             	mov    %edi,-0x34(%rbp)
	// Initialize nextfree if this is the first time.
	// 'end' is a magic symbol automatically generated by the linker,
	// which points to the end of the kernel's bss segment:
	// the first virtual address that the linker did *not* assign
	// to any kernel code or global variables.
	if (!nextfree) {
  8004202505:	48 b8 48 02 4e 04 80 	movabs $0x80044e0248,%rax
  800420250c:	00 00 00 
  800420250f:	48 8b 00             	mov    (%rax),%rax
  8004202512:	48 85 c0             	test   %rax,%rax
  8004202515:	75 48                	jne    800420255f <boot_alloc+0x65>
#ifdef VMM_GUEST
		extern char end[];
		nextfree = ROUNDUP((char *) end, PGSIZE);
#else
		extern uintptr_t end_debug;
		nextfree = ROUNDUP((char *) end_debug, PGSIZE);
  8004202517:	48 c7 45 f8 00 10 00 	movq   $0x1000,-0x8(%rbp)
  800420251e:	00 
  800420251f:	48 b8 d0 f5 6d 04 80 	movabs $0x80046df5d0,%rax
  8004202526:	00 00 00 
  8004202529:	48 8b 10             	mov    (%rax),%rdx
  800420252c:	48 8b 45 f8          	mov    -0x8(%rbp),%rax
  8004202530:	48 01 d0             	add    %rdx,%rax
  8004202533:	48 83 e8 01          	sub    $0x1,%rax
  8004202537:	48 89 45 f0          	mov    %rax,-0x10(%rbp)
  800420253b:	48 8b 45 f0          	mov    -0x10(%rbp),%rax
  800420253f:	ba 00 00 00 00       	mov    $0x0,%edx
  8004202544:	48 f7 75 f8          	divq   -0x8(%rbp)
  8004202548:	48 8b 45 f0          	mov    -0x10(%rbp),%rax
  800420254c:	48 29 d0             	sub    %rdx,%rax
  800420254f:	48 89 c2             	mov    %rax,%rdx
  8004202552:	48 b8 48 02 4e 04 80 	movabs $0x80044e0248,%rax
  8004202559:	00 00 00 
  800420255c:	48 89 10             	mov    %rdx,(%rax)
	// to a multiple of PGSIZE.
	//
	// LAB 2: Your code here.


	if ((uintptr_t)nextfree + n < (uintptr_t)nextfree
  800420255f:	8b 55 cc             	mov    -0x34(%rbp),%edx
  8004202562:	48 b8 48 02 4e 04 80 	movabs $0x80044e0248,%rax
  8004202569:	00 00 00 
  800420256c:	48 8b 00             	mov    (%rax),%rax
  800420256f:	48 01 c2             	add    %rax,%rdx
  8004202572:	48 b8 48 02 4e 04 80 	movabs $0x80044e0248,%rax
  8004202579:	00 00 00 
  800420257c:	48 8b 00             	mov    (%rax),%rax
  800420257f:	48 39 c2             	cmp    %rax,%rdx
  8004202582:	72 2f                	jb     80042025b3 <boot_alloc+0xb9>
            || nextfree + n > (char*) (npages * PGSIZE + KERNBASE))
  8004202584:	48 b8 48 02 4e 04 80 	movabs $0x80044e0248,%rax
  800420258b:	00 00 00 
  800420258e:	48 8b 10             	mov    (%rax),%rdx
  8004202591:	8b 45 cc             	mov    -0x34(%rbp),%eax
  8004202594:	48 01 c2             	add    %rax,%rdx
  8004202597:	48 b8 f8 f5 6d 04 80 	movabs $0x80046df5f8,%rax
  800420259e:	00 00 00 
  80042025a1:	48 8b 00             	mov    (%rax),%rax
  80042025a4:	48 05 00 40 00 08    	add    $0x8004000,%rax
  80042025aa:	48 c1 e0 0c          	shl    $0xc,%rax
  80042025ae:	48 39 c2             	cmp    %rax,%rdx
  80042025b1:	76 2a                	jbe    80042025dd <boot_alloc+0xe3>
		panic("out of memory during x64_vm_init");
  80042025b3:	48 ba 78 f5 21 04 80 	movabs $0x800421f578,%rdx
  80042025ba:	00 00 00 
  80042025bd:	be ee 00 00 00       	mov    $0xee,%esi
  80042025c2:	48 bf 7e f4 21 04 80 	movabs $0x800421f47e,%rdi
  80042025c9:	00 00 00 
  80042025cc:	b8 00 00 00 00       	mov    $0x0,%eax
  80042025d1:	48 b9 d3 04 20 04 80 	movabs $0x80042004d3,%rcx
  80042025d8:	00 00 00 
  80042025db:	ff d1                	callq  *%rcx
	result = nextfree;
  80042025dd:	48 b8 48 02 4e 04 80 	movabs $0x80044e0248,%rax
  80042025e4:	00 00 00 
  80042025e7:	48 8b 00             	mov    (%rax),%rax
  80042025ea:	48 89 45 e8          	mov    %rax,-0x18(%rbp)
	nextfree = ROUNDUP(nextfree + n, PGSIZE);
  80042025ee:	48 c7 45 e0 00 10 00 	movq   $0x1000,-0x20(%rbp)
  80042025f5:	00 
  80042025f6:	48 b8 48 02 4e 04 80 	movabs $0x80044e0248,%rax
  80042025fd:	00 00 00 
  8004202600:	48 8b 10             	mov    (%rax),%rdx
  8004202603:	8b 45 cc             	mov    -0x34(%rbp),%eax
  8004202606:	48 01 d0             	add    %rdx,%rax
  8004202609:	48 89 c2             	mov    %rax,%rdx
  800420260c:	48 8b 45 e0          	mov    -0x20(%rbp),%rax
  8004202610:	48 01 d0             	add    %rdx,%rax
  8004202613:	48 83 e8 01          	sub    $0x1,%rax
  8004202617:	48 89 45 d8          	mov    %rax,-0x28(%rbp)
  800420261b:	48 8b 45 d8          	mov    -0x28(%rbp),%rax
  800420261f:	ba 00 00 00 00       	mov    $0x0,%edx
  8004202624:	48 f7 75 e0          	divq   -0x20(%rbp)
  8004202628:	48 8b 45 d8          	mov    -0x28(%rbp),%rax
  800420262c:	48 29 d0             	sub    %rdx,%rax
  800420262f:	48 89 c2             	mov    %rax,%rdx
  8004202632:	48 b8 48 02 4e 04 80 	movabs $0x80044e0248,%rax
  8004202639:	00 00 00 
  800420263c:	48 89 10             	mov    %rdx,(%rax)
	return result;
  800420263f:	48 8b 45 e8          	mov    -0x18(%rbp),%rax

}
  8004202643:	c9                   	leaveq 
  8004202644:	c3                   	retq   

0000008004202645 <x64_vm_init>:
//
// From UTOP to ULIM, the user is allowed to read but not write.
// Above ULIM the user cannot read or write.
void
x64_vm_init(void)
{
  8004202645:	55                   	push   %rbp
  8004202646:	48 89 e5             	mov    %rsp,%rbp
  8004202649:	48 83 c4 80          	add    $0xffffffffffffff80,%rsp
	pml4e_t* pml4e;
	uint32_t cr0;
	uint64_t n;
	int r;
	struct Env *env;
	i386_detect_memory();
  800420264d:	48 b8 56 22 20 04 80 	movabs $0x8004202256,%rax
  8004202654:	00 00 00 
  8004202657:	ff d0                	callq  *%rax
	//panic("i386_vm_init: This function is not finished\n");
	//////////////////////////////////////////////////////////////////////
	// create initial page directory.

	pml4e = boot_alloc(PGSIZE);
  8004202659:	bf 00 10 00 00       	mov    $0x1000,%edi
  800420265e:	48 b8 fa 24 20 04 80 	movabs $0x80042024fa,%rax
  8004202665:	00 00 00 
  8004202668:	ff d0                	callq  *%rax
  800420266a:	48 89 45 f8          	mov    %rax,-0x8(%rbp)
	memset(pml4e, 0, PGSIZE);
  800420266e:	48 8b 45 f8          	mov    -0x8(%rbp),%rax
  8004202672:	ba 00 10 00 00       	mov    $0x1000,%edx
  8004202677:	be 00 00 00 00       	mov    $0x0,%esi
  800420267c:	48 89 c7             	mov    %rax,%rdi
  800420267f:	48 b8 b9 11 21 04 80 	movabs $0x80042111b9,%rax
  8004202686:	00 00 00 
  8004202689:	ff d0                	callq  *%rax
	boot_pml4e = pml4e;
  800420268b:	48 b8 f0 f5 6d 04 80 	movabs $0x80046df5f0,%rax
  8004202692:	00 00 00 
  8004202695:	48 8b 55 f8          	mov    -0x8(%rbp),%rdx
  8004202699:	48 89 10             	mov    %rdx,(%rax)
	boot_cr3 = PADDR(pml4e);
  800420269c:	48 8b 45 f8          	mov    -0x8(%rbp),%rax
  80042026a0:	48 89 45 f0          	mov    %rax,-0x10(%rbp)
  80042026a4:	48 b8 ff ff ff 03 80 	movabs $0x8003ffffff,%rax
  80042026ab:	00 00 00 
  80042026ae:	48 39 45 f0          	cmp    %rax,-0x10(%rbp)
  80042026b2:	77 32                	ja     80042026e6 <x64_vm_init+0xa1>
  80042026b4:	48 8b 45 f0          	mov    -0x10(%rbp),%rax
  80042026b8:	48 89 c1             	mov    %rax,%rcx
  80042026bb:	48 ba a0 f5 21 04 80 	movabs $0x800421f5a0,%rdx
  80042026c2:	00 00 00 
  80042026c5:	be 0e 01 00 00       	mov    $0x10e,%esi
  80042026ca:	48 bf 7e f4 21 04 80 	movabs $0x800421f47e,%rdi
  80042026d1:	00 00 00 
  80042026d4:	b8 00 00 00 00       	mov    $0x0,%eax
  80042026d9:	49 b8 d3 04 20 04 80 	movabs $0x80042004d3,%r8
  80042026e0:	00 00 00 
  80042026e3:	41 ff d0             	callq  *%r8
  80042026e6:	48 ba 00 00 00 fc 7f 	movabs $0xffffff7ffc000000,%rdx
  80042026ed:	ff ff ff 
  80042026f0:	48 8b 45 f0          	mov    -0x10(%rbp),%rax
  80042026f4:	48 01 c2             	add    %rax,%rdx
  80042026f7:	48 b8 e8 f5 6d 04 80 	movabs $0x80046df5e8,%rax
  80042026fe:	00 00 00 
  8004202701:	48 89 10             	mov    %rdx,(%rax)
	// The kernel uses this array to keep track of physical pages: for
	// each physical page, there is a corresponding struct PageInfo in this
	// array.  'npages' is the number of physical pages in memory.
	// Your code goes here:

	n = npages * sizeof(struct PageInfo);
  8004202704:	48 b8 f8 f5 6d 04 80 	movabs $0x80046df5f8,%rax
  800420270b:	00 00 00 
  800420270e:	48 8b 00             	mov    (%rax),%rax
  8004202711:	48 c1 e0 04          	shl    $0x4,%rax
  8004202715:	48 89 45 e8          	mov    %rax,-0x18(%rbp)
	pages = (struct PageInfo *) boot_alloc(n);
  8004202719:	48 8b 45 e8          	mov    -0x18(%rbp),%rax
  800420271d:	89 c7                	mov    %eax,%edi
  800420271f:	48 b8 fa 24 20 04 80 	movabs $0x80042024fa,%rax
  8004202726:	00 00 00 
  8004202729:	ff d0                	callq  *%rax
  800420272b:	48 89 c2             	mov    %rax,%rdx
  800420272e:	48 b8 00 f6 6d 04 80 	movabs $0x80046df600,%rax
  8004202735:	00 00 00 
  8004202738:	48 89 10             	mov    %rdx,(%rax)
	memset(pages, 0, n);
  800420273b:	48 b8 00 f6 6d 04 80 	movabs $0x80046df600,%rax
  8004202742:	00 00 00 
  8004202745:	48 8b 00             	mov    (%rax),%rax
  8004202748:	48 8b 55 e8          	mov    -0x18(%rbp),%rdx
  800420274c:	be 00 00 00 00       	mov    $0x0,%esi
  8004202751:	48 89 c7             	mov    %rax,%rdi
  8004202754:	48 b8 b9 11 21 04 80 	movabs $0x80042111b9,%rax
  800420275b:	00 00 00 
  800420275e:	ff d0                	callq  *%rax

	//////////////////////////////////////////////////////////////////////
	// Make 'envs' point to an array of size 'NENV' of 'struct Env'.
	// LAB 3: Your code here.

	envs    = boot_alloc(sizeof(struct Env)*NENV);
  8004202760:	bf 00 a0 05 00       	mov    $0x5a000,%edi
  8004202765:	48 b8 fa 24 20 04 80 	movabs $0x80042024fa,%rax
  800420276c:	00 00 00 
  800420276f:	ff d0                	callq  *%rax
  8004202771:	48 89 c2             	mov    %rax,%rdx
  8004202774:	48 b8 58 02 4e 04 80 	movabs $0x80044e0258,%rax
  800420277b:	00 00 00 
  800420277e:	48 89 10             	mov    %rdx,(%rax)
	memset(envs, 0, sizeof(struct Env)*NENV);
  8004202781:	48 b8 58 02 4e 04 80 	movabs $0x80044e0258,%rax
  8004202788:	00 00 00 
  800420278b:	48 8b 00             	mov    (%rax),%rax
  800420278e:	ba 00 a0 05 00       	mov    $0x5a000,%edx
  8004202793:	be 00 00 00 00       	mov    $0x0,%esi
  8004202798:	48 89 c7             	mov    %rax,%rdi
  800420279b:	48 b8 b9 11 21 04 80 	movabs $0x80042111b9,%rax
  80042027a2:	00 00 00 
  80042027a5:	ff d0                	callq  *%rax
	//////////////////////////////////////////////////////////////////////
	// Now that we've allocated the initial kernel data structures, we set
	// up the list of free physical pages. Once we've done so, all further
	// memory management will go through the page_* functions. In
	// particular, we can now map memory using boot_map_region or page_insert
	page_init();
  80042027a7:	48 b8 01 2c 20 04 80 	movabs $0x8004202c01,%rax
  80042027ae:	00 00 00 
  80042027b1:	ff d0                	callq  *%rax
	//    - the new image at UPAGES -- kernel R, us/er R
	//      (ie. perm = PTE_U | PTE_P)
	//    - pages itself -- kernel RW, user NONE
	// Your code goes here:

	n = npages*sizeof(struct PageInfo);
  80042027b3:	48 b8 f8 f5 6d 04 80 	movabs $0x80046df5f8,%rax
  80042027ba:	00 00 00 
  80042027bd:	48 8b 00             	mov    (%rax),%rax
  80042027c0:	48 c1 e0 04          	shl    $0x4,%rax
  80042027c4:	48 89 45 e8          	mov    %rax,-0x18(%rbp)
	boot_map_region(boot_pml4e, UPAGES, n, PADDR(pages), PTE_U);
  80042027c8:	48 b8 00 f6 6d 04 80 	movabs $0x80046df600,%rax
  80042027cf:	00 00 00 
  80042027d2:	48 8b 00             	mov    (%rax),%rax
  80042027d5:	48 89 45 e0          	mov    %rax,-0x20(%rbp)
  80042027d9:	48 b8 ff ff ff 03 80 	movabs $0x8003ffffff,%rax
  80042027e0:	00 00 00 
  80042027e3:	48 39 45 e0          	cmp    %rax,-0x20(%rbp)
  80042027e7:	77 32                	ja     800420281b <x64_vm_init+0x1d6>
  80042027e9:	48 8b 45 e0          	mov    -0x20(%rbp),%rax
  80042027ed:	48 89 c1             	mov    %rax,%rcx
  80042027f0:	48 ba a0 f5 21 04 80 	movabs $0x800421f5a0,%rdx
  80042027f7:	00 00 00 
  80042027fa:	be 38 01 00 00       	mov    $0x138,%esi
  80042027ff:	48 bf 7e f4 21 04 80 	movabs $0x800421f47e,%rdi
  8004202806:	00 00 00 
  8004202809:	b8 00 00 00 00       	mov    $0x0,%eax
  800420280e:	49 b8 d3 04 20 04 80 	movabs $0x80042004d3,%r8
  8004202815:	00 00 00 
  8004202818:	41 ff d0             	callq  *%r8
  800420281b:	48 ba 00 00 00 fc 7f 	movabs $0xffffff7ffc000000,%rdx
  8004202822:	ff ff ff 
  8004202825:	48 8b 45 e0          	mov    -0x20(%rbp),%rax
  8004202829:	48 8d 0c 02          	lea    (%rdx,%rax,1),%rcx
  800420282d:	48 b8 f0 f5 6d 04 80 	movabs $0x80046df5f0,%rax
  8004202834:	00 00 00 
  8004202837:	48 8b 00             	mov    (%rax),%rax
  800420283a:	48 8b 55 e8          	mov    -0x18(%rbp),%rdx
  800420283e:	41 b8 04 00 00 00    	mov    $0x4,%r8d
  8004202844:	48 be 00 00 a0 00 80 	movabs $0x8000a00000,%rsi
  800420284b:	00 00 00 
  800420284e:	48 89 c7             	mov    %rax,%rdi
  8004202851:	48 b8 4f 37 20 04 80 	movabs $0x800420374f,%rax
  8004202858:	00 00 00 
  800420285b:	ff d0                	callq  *%rax
	// Permissions:
	//    - the new image at UENVS  -- kernel R, user R
	//    - envs itself -- kernel RW, user NONE
	// LAB 3: Your code here.

	n   = ROUNDUP(NENV*sizeof(struct Env), PGSIZE);
  800420285d:	48 c7 45 d8 00 10 00 	movq   $0x1000,-0x28(%rbp)
  8004202864:	00 
  8004202865:	48 8b 45 d8          	mov    -0x28(%rbp),%rax
  8004202869:	48 05 ff 9f 05 00    	add    $0x59fff,%rax
  800420286f:	48 89 45 d0          	mov    %rax,-0x30(%rbp)
  8004202873:	48 8b 45 d0          	mov    -0x30(%rbp),%rax
  8004202877:	ba 00 00 00 00       	mov    $0x0,%edx
  800420287c:	48 f7 75 d8          	divq   -0x28(%rbp)
  8004202880:	48 8b 45 d0          	mov    -0x30(%rbp),%rax
  8004202884:	48 29 d0             	sub    %rdx,%rax
  8004202887:	48 89 45 e8          	mov    %rax,-0x18(%rbp)
	boot_map_region(boot_pml4e, UENVS, n, PADDR(envs), PTE_U|PTE_P);
  800420288b:	48 b8 58 02 4e 04 80 	movabs $0x80044e0258,%rax
  8004202892:	00 00 00 
  8004202895:	48 8b 00             	mov    (%rax),%rax
  8004202898:	48 89 45 c8          	mov    %rax,-0x38(%rbp)
  800420289c:	48 b8 ff ff ff 03 80 	movabs $0x8003ffffff,%rax
  80042028a3:	00 00 00 
  80042028a6:	48 39 45 c8          	cmp    %rax,-0x38(%rbp)
  80042028aa:	77 32                	ja     80042028de <x64_vm_init+0x299>
  80042028ac:	48 8b 45 c8          	mov    -0x38(%rbp),%rax
  80042028b0:	48 89 c1             	mov    %rax,%rcx
  80042028b3:	48 ba a0 f5 21 04 80 	movabs $0x800421f5a0,%rdx
  80042028ba:	00 00 00 
  80042028bd:	be 45 01 00 00       	mov    $0x145,%esi
  80042028c2:	48 bf 7e f4 21 04 80 	movabs $0x800421f47e,%rdi
  80042028c9:	00 00 00 
  80042028cc:	b8 00 00 00 00       	mov    $0x0,%eax
  80042028d1:	49 b8 d3 04 20 04 80 	movabs $0x80042004d3,%r8
  80042028d8:	00 00 00 
  80042028db:	41 ff d0             	callq  *%r8
  80042028de:	48 ba 00 00 00 fc 7f 	movabs $0xffffff7ffc000000,%rdx
  80042028e5:	ff ff ff 
  80042028e8:	48 8b 45 c8          	mov    -0x38(%rbp),%rax
  80042028ec:	48 8d 0c 02          	lea    (%rdx,%rax,1),%rcx
  80042028f0:	48 b8 f0 f5 6d 04 80 	movabs $0x80046df5f0,%rax
  80042028f7:	00 00 00 
  80042028fa:	48 8b 00             	mov    (%rax),%rax
  80042028fd:	48 8b 55 e8          	mov    -0x18(%rbp),%rdx
  8004202901:	41 b8 05 00 00 00    	mov    $0x5,%r8d
  8004202907:	48 be 00 00 80 00 80 	movabs $0x8000800000,%rsi
  800420290e:	00 00 00 
  8004202911:	48 89 c7             	mov    %rax,%rdi
  8004202914:	48 b8 4f 37 20 04 80 	movabs $0x800420374f,%rax
  800420291b:	00 00 00 
  800420291e:	ff d0                	callq  *%rax
	//       the kernel overflows its stack, it will fault rather than
	//       overwrite memory.  Known as a "guard page".
	//     Permissions: kernel RW, user NONE
	// Your code goes here:

	boot_map_region(boot_pml4e, KSTACKTOP-KSTKSIZE, KSTKSIZE, PADDR(bootstack), PTE_W|PTE_P);
  8004202920:	48 b8 00 60 22 04 80 	movabs $0x8004226000,%rax
  8004202927:	00 00 00 
  800420292a:	48 89 45 c0          	mov    %rax,-0x40(%rbp)
  800420292e:	48 b8 ff ff ff 03 80 	movabs $0x8003ffffff,%rax
  8004202935:	00 00 00 
  8004202938:	48 39 45 c0          	cmp    %rax,-0x40(%rbp)
  800420293c:	77 32                	ja     8004202970 <x64_vm_init+0x32b>
  800420293e:	48 8b 45 c0          	mov    -0x40(%rbp),%rax
  8004202942:	48 89 c1             	mov    %rax,%rcx
  8004202945:	48 ba a0 f5 21 04 80 	movabs $0x800421f5a0,%rdx
  800420294c:	00 00 00 
  800420294f:	be 55 01 00 00       	mov    $0x155,%esi
  8004202954:	48 bf 7e f4 21 04 80 	movabs $0x800421f47e,%rdi
  800420295b:	00 00 00 
  800420295e:	b8 00 00 00 00       	mov    $0x0,%eax
  8004202963:	49 b8 d3 04 20 04 80 	movabs $0x80042004d3,%r8
  800420296a:	00 00 00 
  800420296d:	41 ff d0             	callq  *%r8
  8004202970:	48 ba 00 00 00 fc 7f 	movabs $0xffffff7ffc000000,%rdx
  8004202977:	ff ff ff 
  800420297a:	48 8b 45 c0          	mov    -0x40(%rbp),%rax
  800420297e:	48 01 c2             	add    %rax,%rdx
  8004202981:	48 b8 f0 f5 6d 04 80 	movabs $0x80046df5f0,%rax
  8004202988:	00 00 00 
  800420298b:	48 8b 00             	mov    (%rax),%rax
  800420298e:	41 b8 03 00 00 00    	mov    $0x3,%r8d
  8004202994:	48 89 d1             	mov    %rdx,%rcx
  8004202997:	ba 00 00 01 00       	mov    $0x10000,%edx
  800420299c:	48 be 00 00 ff 03 80 	movabs $0x8003ff0000,%rsi
  80042029a3:	00 00 00 
  80042029a6:	48 89 c7             	mov    %rax,%rdi
  80042029a9:	48 b8 4f 37 20 04 80 	movabs $0x800420374f,%rax
  80042029b0:	00 00 00 
  80042029b3:	ff d0                	callq  *%rax
	// Ie.  the VA range [KERNBASE, npages*PGSIZE) should map to
	//      the PA range [0, npages*PGSIZE)
	// Permissions: kernel RW, user NONE
	// Your code goes here: 

	boot_map_region(boot_pml4e, KERNBASE, npages*PGSIZE, 0, PTE_W|PTE_P);
  80042029b5:	48 b8 f8 f5 6d 04 80 	movabs $0x80046df5f8,%rax
  80042029bc:	00 00 00 
  80042029bf:	48 8b 00             	mov    (%rax),%rax
  80042029c2:	48 c1 e0 0c          	shl    $0xc,%rax
  80042029c6:	48 89 c2             	mov    %rax,%rdx
  80042029c9:	48 b8 f0 f5 6d 04 80 	movabs $0x80046df5f0,%rax
  80042029d0:	00 00 00 
  80042029d3:	48 8b 00             	mov    (%rax),%rax
  80042029d6:	41 b8 03 00 00 00    	mov    $0x3,%r8d
  80042029dc:	b9 00 00 00 00       	mov    $0x0,%ecx
  80042029e1:	48 be 00 00 00 04 80 	movabs $0x8004000000,%rsi
  80042029e8:	00 00 00 
  80042029eb:	48 89 c7             	mov    %rax,%rdi
  80042029ee:	48 b8 4f 37 20 04 80 	movabs $0x800420374f,%rax
  80042029f5:	00 00 00 
  80042029f8:	ff d0                	callq  *%rax

	// Check that the initial page directory has been set up correctly.

	// Initialize the SMP-related parts of the memory map
	mem_init_mp();
  80042029fa:	48 b8 15 2b 20 04 80 	movabs $0x8004202b15,%rax
  8004202a01:	00 00 00 
  8004202a04:	ff d0                	callq  *%rax



	//////////////////////////////////////////////////////////////////////
	// Permissions: kernel RW, user NONE
	pdpe_t *pdpe = KADDR(PTE_ADDR(pml4e[1]));
  8004202a06:	48 8b 45 f8          	mov    -0x8(%rbp),%rax
  8004202a0a:	48 83 c0 08          	add    $0x8,%rax
  8004202a0e:	48 8b 00             	mov    (%rax),%rax
  8004202a11:	48 25 00 f0 ff ff    	and    $0xfffffffffffff000,%rax
  8004202a17:	48 89 45 b8          	mov    %rax,-0x48(%rbp)
  8004202a1b:	48 8b 45 b8          	mov    -0x48(%rbp),%rax
  8004202a1f:	48 c1 e8 0c          	shr    $0xc,%rax
  8004202a23:	89 45 b4             	mov    %eax,-0x4c(%rbp)
  8004202a26:	8b 55 b4             	mov    -0x4c(%rbp),%edx
  8004202a29:	48 b8 f8 f5 6d 04 80 	movabs $0x80046df5f8,%rax
  8004202a30:	00 00 00 
  8004202a33:	48 8b 00             	mov    (%rax),%rax
  8004202a36:	48 39 c2             	cmp    %rax,%rdx
  8004202a39:	72 32                	jb     8004202a6d <x64_vm_init+0x428>
  8004202a3b:	48 8b 45 b8          	mov    -0x48(%rbp),%rax
  8004202a3f:	48 89 c1             	mov    %rax,%rcx
  8004202a42:	48 ba f0 f3 21 04 80 	movabs $0x800421f3f0,%rdx
  8004202a49:	00 00 00 
  8004202a4c:	be 6c 01 00 00       	mov    $0x16c,%esi
  8004202a51:	48 bf 7e f4 21 04 80 	movabs $0x800421f47e,%rdi
  8004202a58:	00 00 00 
  8004202a5b:	b8 00 00 00 00       	mov    $0x0,%eax
  8004202a60:	49 b8 d3 04 20 04 80 	movabs $0x80042004d3,%r8
  8004202a67:	00 00 00 
  8004202a6a:	41 ff d0             	callq  *%r8
  8004202a6d:	48 ba 00 00 00 04 80 	movabs $0x8004000000,%rdx
  8004202a74:	00 00 00 
  8004202a77:	48 8b 45 b8          	mov    -0x48(%rbp),%rax
  8004202a7b:	48 01 d0             	add    %rdx,%rax
  8004202a7e:	48 89 45 a8          	mov    %rax,-0x58(%rbp)
	pde_t *pgdir = KADDR(PTE_ADDR(pdpe[0]));
  8004202a82:	48 8b 45 a8          	mov    -0x58(%rbp),%rax
  8004202a86:	48 8b 00             	mov    (%rax),%rax
  8004202a89:	48 25 00 f0 ff ff    	and    $0xfffffffffffff000,%rax
  8004202a8f:	48 89 45 a0          	mov    %rax,-0x60(%rbp)
  8004202a93:	48 8b 45 a0          	mov    -0x60(%rbp),%rax
  8004202a97:	48 c1 e8 0c          	shr    $0xc,%rax
  8004202a9b:	89 45 9c             	mov    %eax,-0x64(%rbp)
  8004202a9e:	8b 55 9c             	mov    -0x64(%rbp),%edx
  8004202aa1:	48 b8 f8 f5 6d 04 80 	movabs $0x80046df5f8,%rax
  8004202aa8:	00 00 00 
  8004202aab:	48 8b 00             	mov    (%rax),%rax
  8004202aae:	48 39 c2             	cmp    %rax,%rdx
  8004202ab1:	72 32                	jb     8004202ae5 <x64_vm_init+0x4a0>
  8004202ab3:	48 8b 45 a0          	mov    -0x60(%rbp),%rax
  8004202ab7:	48 89 c1             	mov    %rax,%rcx
  8004202aba:	48 ba f0 f3 21 04 80 	movabs $0x800421f3f0,%rdx
  8004202ac1:	00 00 00 
  8004202ac4:	be 6d 01 00 00       	mov    $0x16d,%esi
  8004202ac9:	48 bf 7e f4 21 04 80 	movabs $0x800421f47e,%rdi
  8004202ad0:	00 00 00 
  8004202ad3:	b8 00 00 00 00       	mov    $0x0,%eax
  8004202ad8:	49 b8 d3 04 20 04 80 	movabs $0x80042004d3,%r8
  8004202adf:	00 00 00 
  8004202ae2:	41 ff d0             	callq  *%r8
  8004202ae5:	48 ba 00 00 00 04 80 	movabs $0x8004000000,%rdx
  8004202aec:	00 00 00 
  8004202aef:	48 8b 45 a0          	mov    -0x60(%rbp),%rax
  8004202af3:	48 01 d0             	add    %rdx,%rax
  8004202af6:	48 89 45 90          	mov    %rax,-0x70(%rbp)
	lcr3(boot_cr3);
  8004202afa:	48 b8 e8 f5 6d 04 80 	movabs $0x80046df5e8,%rax
  8004202b01:	00 00 00 
  8004202b04:	48 8b 00             	mov    (%rax),%rax
  8004202b07:	48 89 45 88          	mov    %rax,-0x78(%rbp)
}

static __inline void
lcr3(uint64_t val)
{
	__asm __volatile("movq %0,%%cr3" : : "r" (val));
  8004202b0b:	48 8b 45 88          	mov    -0x78(%rbp),%rax
  8004202b0f:	0f 22 d8             	mov    %rax,%cr3
}
  8004202b12:	90                   	nop
  8004202b13:	c9                   	leaveq 
  8004202b14:	c3                   	retq   

0000008004202b15 <mem_init_mp>:
// Modify mappings in boot_pml4e to support SMP
//   - Map the per-CPU stacks in the region [KSTACKTOP-PTSIZE, KSTACKTOP)
//
static void
mem_init_mp(void)
{
  8004202b15:	55                   	push   %rbp
  8004202b16:	48 89 e5             	mov    %rsp,%rbp
  8004202b19:	48 83 ec 20          	sub    $0x20,%rsp
	// LAB 4: Your code here:


	int i;
	uintptr_t kstacktop;
	for (i = 0; i < NCPU; i++) {
  8004202b1d:	c7 45 fc 00 00 00 00 	movl   $0x0,-0x4(%rbp)
  8004202b24:	e9 cb 00 00 00       	jmpq   8004202bf4 <mem_init_mp+0xdf>
		kstacktop = KSTACKTOP - (KSTKSIZE + KSTKGAP) * i;
  8004202b29:	8b 55 fc             	mov    -0x4(%rbp),%edx
  8004202b2c:	89 d0                	mov    %edx,%eax
  8004202b2e:	01 c0                	add    %eax,%eax
  8004202b30:	01 d0                	add    %edx,%eax
  8004202b32:	c1 e0 0f             	shl    $0xf,%eax
  8004202b35:	48 98                	cltq   
  8004202b37:	48 ba 00 00 00 04 80 	movabs $0x8004000000,%rdx
  8004202b3e:	00 00 00 
  8004202b41:	48 29 c2             	sub    %rax,%rdx
  8004202b44:	48 89 d0             	mov    %rdx,%rax
  8004202b47:	48 89 45 f0          	mov    %rax,-0x10(%rbp)
		boot_map_region(boot_pml4e, kstacktop - KSTKSIZE, KSTKSIZE,
				PADDR(percpu_kstacks[i]), PTE_P|PTE_W);
  8004202b4b:	8b 45 fc             	mov    -0x4(%rbp),%eax
  8004202b4e:	48 98                	cltq   
  8004202b50:	48 c1 e0 10          	shl    $0x10,%rax
  8004202b54:	48 89 c2             	mov    %rax,%rdx
  8004202b57:	48 b8 00 20 6e 04 80 	movabs $0x80046e2000,%rax
  8004202b5e:	00 00 00 
  8004202b61:	48 01 d0             	add    %rdx,%rax
  8004202b64:	48 89 45 e8          	mov    %rax,-0x18(%rbp)
  8004202b68:	48 b8 ff ff ff 03 80 	movabs $0x8003ffffff,%rax
  8004202b6f:	00 00 00 
  8004202b72:	48 39 45 e8          	cmp    %rax,-0x18(%rbp)
  8004202b76:	77 32                	ja     8004202baa <mem_init_mp+0x95>
  8004202b78:	48 8b 45 e8          	mov    -0x18(%rbp),%rax
  8004202b7c:	48 89 c1             	mov    %rax,%rcx
  8004202b7f:	48 ba a0 f5 21 04 80 	movabs $0x800421f5a0,%rdx
  8004202b86:	00 00 00 
  8004202b89:	be 90 01 00 00       	mov    $0x190,%esi
  8004202b8e:	48 bf 7e f4 21 04 80 	movabs $0x800421f47e,%rdi
  8004202b95:	00 00 00 
  8004202b98:	b8 00 00 00 00       	mov    $0x0,%eax
  8004202b9d:	49 b8 d3 04 20 04 80 	movabs $0x80042004d3,%r8
  8004202ba4:	00 00 00 
  8004202ba7:	41 ff d0             	callq  *%r8
  8004202baa:	48 ba 00 00 00 fc 7f 	movabs $0xffffff7ffc000000,%rdx
  8004202bb1:	ff ff ff 
  8004202bb4:	48 8b 45 e8          	mov    -0x18(%rbp),%rax
  8004202bb8:	48 01 c2             	add    %rax,%rdx

	int i;
	uintptr_t kstacktop;
	for (i = 0; i < NCPU; i++) {
		kstacktop = KSTACKTOP - (KSTKSIZE + KSTKGAP) * i;
		boot_map_region(boot_pml4e, kstacktop - KSTKSIZE, KSTKSIZE,
  8004202bbb:	48 8b 45 f0          	mov    -0x10(%rbp),%rax
  8004202bbf:	48 8d b0 00 00 ff ff 	lea    -0x10000(%rax),%rsi
  8004202bc6:	48 b8 f0 f5 6d 04 80 	movabs $0x80046df5f0,%rax
  8004202bcd:	00 00 00 
  8004202bd0:	48 8b 00             	mov    (%rax),%rax
  8004202bd3:	41 b8 03 00 00 00    	mov    $0x3,%r8d
  8004202bd9:	48 89 d1             	mov    %rdx,%rcx
  8004202bdc:	ba 00 00 01 00       	mov    $0x10000,%edx
  8004202be1:	48 89 c7             	mov    %rax,%rdi
  8004202be4:	48 b8 4f 37 20 04 80 	movabs $0x800420374f,%rax
  8004202beb:	00 00 00 
  8004202bee:	ff d0                	callq  *%rax
	// LAB 4: Your code here:


	int i;
	uintptr_t kstacktop;
	for (i = 0; i < NCPU; i++) {
  8004202bf0:	83 45 fc 01          	addl   $0x1,-0x4(%rbp)
  8004202bf4:	83 7d fc 03          	cmpl   $0x3,-0x4(%rbp)
  8004202bf8:	0f 8e 2b ff ff ff    	jle    8004202b29 <mem_init_mp+0x14>
		kstacktop = KSTACKTOP - (KSTKSIZE + KSTKGAP) * i;
		boot_map_region(boot_pml4e, kstacktop - KSTKSIZE, KSTKSIZE,
				PADDR(percpu_kstacks[i]), PTE_P|PTE_W);
	}

}
  8004202bfe:	90                   	nop
  8004202bff:	c9                   	leaveq 
  8004202c00:	c3                   	retq   

0000008004202c01 <page_init>:
// allocator functions below to allocate and deallocate physical
// memory via the page_free_list.
//
void
page_init(void)
{
  8004202c01:	55                   	push   %rbp
  8004202c02:	48 89 e5             	mov    %rsp,%rbp
  8004202c05:	48 83 ec 50          	sub    $0x50,%rsp
	// LAB 4:
	// Change your code to mark the physical page at MPENTRY_PADDR
	// as in use


	void *nextfree = boot_alloc(0);
  8004202c09:	bf 00 00 00 00       	mov    $0x0,%edi
  8004202c0e:	48 b8 fa 24 20 04 80 	movabs $0x80042024fa,%rax
  8004202c15:	00 00 00 
  8004202c18:	ff d0                	callq  *%rax
  8004202c1a:	48 89 45 e0          	mov    %rax,-0x20(%rbp)
	size_t i;
	int inuse;
	struct PageInfo* last = NULL;
  8004202c1e:	48 c7 45 e8 00 00 00 	movq   $0x0,-0x18(%rbp)
  8004202c25:	00 
	for (i = 0; i < npages; i++) {
  8004202c26:	48 c7 45 f8 00 00 00 	movq   $0x0,-0x8(%rbp)
  8004202c2d:	00 
  8004202c2e:	e9 65 02 00 00       	jmpq   8004202e98 <page_init+0x297>
		// Off-limits until proven otherwise.
		inuse = 1;
  8004202c33:	c7 45 f4 01 00 00 00 	movl   $0x1,-0xc(%rbp)

		// The bottom basemem bytes are free except page 0.
		if (i != 0 && i < npages_basemem)
  8004202c3a:	48 83 7d f8 00       	cmpq   $0x0,-0x8(%rbp)
  8004202c3f:	74 1a                	je     8004202c5b <page_init+0x5a>
  8004202c41:	48 b8 30 02 4e 04 80 	movabs $0x80044e0230,%rax
  8004202c48:	00 00 00 
  8004202c4b:	48 8b 00             	mov    (%rax),%rax
  8004202c4e:	48 39 45 f8          	cmp    %rax,-0x8(%rbp)
  8004202c52:	73 07                	jae    8004202c5b <page_init+0x5a>
			inuse = 0;
  8004202c54:	c7 45 f4 00 00 00 00 	movl   $0x0,-0xc(%rbp)

		// Mark physical page at MPENTRY_PADDR as in use
		if (i == MPENTRY_PADDR / PGSIZE)
  8004202c5b:	48 83 7d f8 07       	cmpq   $0x7,-0x8(%rbp)
  8004202c60:	75 07                	jne    8004202c69 <page_init+0x68>
			inuse = 1;
  8004202c62:	c7 45 f4 01 00 00 00 	movl   $0x1,-0xc(%rbp)


		// The IO hole and the kernel are non empty but
		// The memory past the kernel is free.
		if (i >= PADDR(nextfree) / PGSIZE)
  8004202c69:	48 8b 45 e0          	mov    -0x20(%rbp),%rax
  8004202c6d:	48 89 45 d8          	mov    %rax,-0x28(%rbp)
  8004202c71:	48 b8 ff ff ff 03 80 	movabs $0x8003ffffff,%rax
  8004202c78:	00 00 00 
  8004202c7b:	48 39 45 d8          	cmp    %rax,-0x28(%rbp)
  8004202c7f:	77 32                	ja     8004202cb3 <page_init+0xb2>
  8004202c81:	48 8b 45 d8          	mov    -0x28(%rbp),%rax
  8004202c85:	48 89 c1             	mov    %rax,%rcx
  8004202c88:	48 ba a0 f5 21 04 80 	movabs $0x800421f5a0,%rdx
  8004202c8f:	00 00 00 
  8004202c92:	be be 01 00 00       	mov    $0x1be,%esi
  8004202c97:	48 bf 7e f4 21 04 80 	movabs $0x800421f47e,%rdi
  8004202c9e:	00 00 00 
  8004202ca1:	b8 00 00 00 00       	mov    $0x0,%eax
  8004202ca6:	49 b8 d3 04 20 04 80 	movabs $0x80042004d3,%r8
  8004202cad:	00 00 00 
  8004202cb0:	41 ff d0             	callq  *%r8
  8004202cb3:	48 ba 00 00 00 fc 7f 	movabs $0xffffff7ffc000000,%rdx
  8004202cba:	ff ff ff 
  8004202cbd:	48 8b 45 d8          	mov    -0x28(%rbp),%rax
  8004202cc1:	48 01 d0             	add    %rdx,%rax
  8004202cc4:	48 c1 e8 0c          	shr    $0xc,%rax
  8004202cc8:	48 3b 45 f8          	cmp    -0x8(%rbp),%rax
  8004202ccc:	77 07                	ja     8004202cd5 <page_init+0xd4>
			inuse = 0;
  8004202cce:	c7 45 f4 00 00 00 00 	movl   $0x0,-0xc(%rbp)

		uint64_t va = KERNBASE + i*PGSIZE;
  8004202cd5:	48 8b 45 f8          	mov    -0x8(%rbp),%rax
  8004202cd9:	48 05 00 40 00 08    	add    $0x8004000,%rax
  8004202cdf:	48 c1 e0 0c          	shl    $0xc,%rax
  8004202ce3:	48 89 45 d0          	mov    %rax,-0x30(%rbp)
		if (va>=BOOT_PAGE_TABLE_START && va<BOOT_PAGE_TABLE_END)
  8004202ce7:	48 b8 00 20 10 00 00 	movabs $0x102000,%rax
  8004202cee:	00 00 00 
  8004202cf1:	48 89 45 c8          	mov    %rax,-0x38(%rbp)
  8004202cf5:	48 8b 45 c8          	mov    -0x38(%rbp),%rax
  8004202cf9:	48 c1 e8 0c          	shr    $0xc,%rax
  8004202cfd:	89 45 c4             	mov    %eax,-0x3c(%rbp)
  8004202d00:	8b 55 c4             	mov    -0x3c(%rbp),%edx
  8004202d03:	48 b8 f8 f5 6d 04 80 	movabs $0x80046df5f8,%rax
  8004202d0a:	00 00 00 
  8004202d0d:	48 8b 00             	mov    (%rax),%rax
  8004202d10:	48 39 c2             	cmp    %rax,%rdx
  8004202d13:	72 32                	jb     8004202d47 <page_init+0x146>
  8004202d15:	48 8b 45 c8          	mov    -0x38(%rbp),%rax
  8004202d19:	48 89 c1             	mov    %rax,%rcx
  8004202d1c:	48 ba f0 f3 21 04 80 	movabs $0x800421f3f0,%rdx
  8004202d23:	00 00 00 
  8004202d26:	be c2 01 00 00       	mov    $0x1c2,%esi
  8004202d2b:	48 bf 7e f4 21 04 80 	movabs $0x800421f47e,%rdi
  8004202d32:	00 00 00 
  8004202d35:	b8 00 00 00 00       	mov    $0x0,%eax
  8004202d3a:	49 b8 d3 04 20 04 80 	movabs $0x80042004d3,%r8
  8004202d41:	00 00 00 
  8004202d44:	41 ff d0             	callq  *%r8
  8004202d47:	48 ba 00 00 00 04 80 	movabs $0x8004000000,%rdx
  8004202d4e:	00 00 00 
  8004202d51:	48 8b 45 c8          	mov    -0x38(%rbp),%rax
  8004202d55:	48 01 d0             	add    %rdx,%rax
  8004202d58:	48 3b 45 d0          	cmp    -0x30(%rbp),%rax
  8004202d5c:	0f 87 84 00 00 00    	ja     8004202de6 <page_init+0x1e5>
  8004202d62:	48 b8 00 20 10 00 00 	movabs $0x102000,%rax
  8004202d69:	00 00 00 
  8004202d6c:	48 05 00 50 00 00    	add    $0x5000,%rax
  8004202d72:	48 89 45 b8          	mov    %rax,-0x48(%rbp)
  8004202d76:	48 8b 45 b8          	mov    -0x48(%rbp),%rax
  8004202d7a:	48 c1 e8 0c          	shr    $0xc,%rax
  8004202d7e:	89 45 b4             	mov    %eax,-0x4c(%rbp)
  8004202d81:	8b 55 b4             	mov    -0x4c(%rbp),%edx
  8004202d84:	48 b8 f8 f5 6d 04 80 	movabs $0x80046df5f8,%rax
  8004202d8b:	00 00 00 
  8004202d8e:	48 8b 00             	mov    (%rax),%rax
  8004202d91:	48 39 c2             	cmp    %rax,%rdx
  8004202d94:	72 32                	jb     8004202dc8 <page_init+0x1c7>
  8004202d96:	48 8b 45 b8          	mov    -0x48(%rbp),%rax
  8004202d9a:	48 89 c1             	mov    %rax,%rcx
  8004202d9d:	48 ba f0 f3 21 04 80 	movabs $0x800421f3f0,%rdx
  8004202da4:	00 00 00 
  8004202da7:	be c2 01 00 00       	mov    $0x1c2,%esi
  8004202dac:	48 bf 7e f4 21 04 80 	movabs $0x800421f47e,%rdi
  8004202db3:	00 00 00 
  8004202db6:	b8 00 00 00 00       	mov    $0x0,%eax
  8004202dbb:	49 b8 d3 04 20 04 80 	movabs $0x80042004d3,%r8
  8004202dc2:	00 00 00 
  8004202dc5:	41 ff d0             	callq  *%r8
  8004202dc8:	48 ba 00 00 00 04 80 	movabs $0x8004000000,%rdx
  8004202dcf:	00 00 00 
  8004202dd2:	48 8b 45 b8          	mov    -0x48(%rbp),%rax
  8004202dd6:	48 01 d0             	add    %rdx,%rax
  8004202dd9:	48 3b 45 d0          	cmp    -0x30(%rbp),%rax
  8004202ddd:	76 07                	jbe    8004202de6 <page_init+0x1e5>
			inuse = 1;
  8004202ddf:	c7 45 f4 01 00 00 00 	movl   $0x1,-0xc(%rbp)

		pages[i].pp_ref = inuse;
  8004202de6:	48 b8 00 f6 6d 04 80 	movabs $0x80046df600,%rax
  8004202ded:	00 00 00 
  8004202df0:	48 8b 00             	mov    (%rax),%rax
  8004202df3:	48 8b 55 f8          	mov    -0x8(%rbp),%rdx
  8004202df7:	48 c1 e2 04          	shl    $0x4,%rdx
  8004202dfb:	48 01 d0             	add    %rdx,%rax
  8004202dfe:	8b 55 f4             	mov    -0xc(%rbp),%edx
  8004202e01:	66 89 50 08          	mov    %dx,0x8(%rax)
		pages[i].pp_link = NULL;
  8004202e05:	48 b8 00 f6 6d 04 80 	movabs $0x80046df600,%rax
  8004202e0c:	00 00 00 
  8004202e0f:	48 8b 00             	mov    (%rax),%rax
  8004202e12:	48 8b 55 f8          	mov    -0x8(%rbp),%rdx
  8004202e16:	48 c1 e2 04          	shl    $0x4,%rdx
  8004202e1a:	48 01 d0             	add    %rdx,%rax
  8004202e1d:	48 c7 00 00 00 00 00 	movq   $0x0,(%rax)
		if (!inuse) {
  8004202e24:	83 7d f4 00          	cmpl   $0x0,-0xc(%rbp)
  8004202e28:	75 69                	jne    8004202e93 <page_init+0x292>
			if (last)
  8004202e2a:	48 83 7d e8 00       	cmpq   $0x0,-0x18(%rbp)
  8004202e2f:	74 21                	je     8004202e52 <page_init+0x251>
				last->pp_link = &pages[i];
  8004202e31:	48 b8 00 f6 6d 04 80 	movabs $0x80046df600,%rax
  8004202e38:	00 00 00 
  8004202e3b:	48 8b 00             	mov    (%rax),%rax
  8004202e3e:	48 8b 55 f8          	mov    -0x8(%rbp),%rdx
  8004202e42:	48 c1 e2 04          	shl    $0x4,%rdx
  8004202e46:	48 01 c2             	add    %rax,%rdx
  8004202e49:	48 8b 45 e8          	mov    -0x18(%rbp),%rax
  8004202e4d:	48 89 10             	mov    %rdx,(%rax)
  8004202e50:	eb 25                	jmp    8004202e77 <page_init+0x276>
			else
				page_free_list = &pages[i];
  8004202e52:	48 b8 00 f6 6d 04 80 	movabs $0x80046df600,%rax
  8004202e59:	00 00 00 
  8004202e5c:	48 8b 00             	mov    (%rax),%rax
  8004202e5f:	48 8b 55 f8          	mov    -0x8(%rbp),%rdx
  8004202e63:	48 c1 e2 04          	shl    $0x4,%rdx
  8004202e67:	48 01 c2             	add    %rax,%rdx
  8004202e6a:	48 b8 38 02 4e 04 80 	movabs $0x80044e0238,%rax
  8004202e71:	00 00 00 
  8004202e74:	48 89 10             	mov    %rdx,(%rax)
			last = &pages[i];
  8004202e77:	48 b8 00 f6 6d 04 80 	movabs $0x80046df600,%rax
  8004202e7e:	00 00 00 
  8004202e81:	48 8b 00             	mov    (%rax),%rax
  8004202e84:	48 8b 55 f8          	mov    -0x8(%rbp),%rdx
  8004202e88:	48 c1 e2 04          	shl    $0x4,%rdx
  8004202e8c:	48 01 d0             	add    %rdx,%rax
  8004202e8f:	48 89 45 e8          	mov    %rax,-0x18(%rbp)

	void *nextfree = boot_alloc(0);
	size_t i;
	int inuse;
	struct PageInfo* last = NULL;
	for (i = 0; i < npages; i++) {
  8004202e93:	48 83 45 f8 01       	addq   $0x1,-0x8(%rbp)
  8004202e98:	48 b8 f8 f5 6d 04 80 	movabs $0x80046df5f8,%rax
  8004202e9f:	00 00 00 
  8004202ea2:	48 8b 00             	mov    (%rax),%rax
  8004202ea5:	48 39 45 f8          	cmp    %rax,-0x8(%rbp)
  8004202ea9:	0f 82 84 fd ff ff    	jb     8004202c33 <page_init+0x32>
		}

	}


}
  8004202eaf:	90                   	nop
  8004202eb0:	c9                   	leaveq 
  8004202eb1:	c3                   	retq   

0000008004202eb2 <page_alloc>:
// Returns NULL if out of free memory.
//
// Hint: use page2kva and memset
struct PageInfo *
page_alloc(int alloc_flags)
{
  8004202eb2:	55                   	push   %rbp
  8004202eb3:	48 89 e5             	mov    %rsp,%rbp
  8004202eb6:	48 83 ec 20          	sub    $0x20,%rsp
  8004202eba:	89 7d ec             	mov    %edi,-0x14(%rbp)
	// Fill this function in

	struct PageInfo *pp = page_free_list;
  8004202ebd:	48 b8 38 02 4e 04 80 	movabs $0x80044e0238,%rax
  8004202ec4:	00 00 00 
  8004202ec7:	48 8b 00             	mov    (%rax),%rax
  8004202eca:	48 89 45 f8          	mov    %rax,-0x8(%rbp)
	if (pp) {
  8004202ece:	48 83 7d f8 00       	cmpq   $0x0,-0x8(%rbp)
  8004202ed3:	74 5e                	je     8004202f33 <page_alloc+0x81>
		//cprintf("alloc new page: struct page %x va %x pa %x \n", pp, page2kva(pp), page2pa(pp));
		page_free_list = page_free_list->pp_link;
  8004202ed5:	48 b8 38 02 4e 04 80 	movabs $0x80044e0238,%rax
  8004202edc:	00 00 00 
  8004202edf:	48 8b 00             	mov    (%rax),%rax
  8004202ee2:	48 8b 10             	mov    (%rax),%rdx
  8004202ee5:	48 b8 38 02 4e 04 80 	movabs $0x80044e0238,%rax
  8004202eec:	00 00 00 
  8004202eef:	48 89 10             	mov    %rdx,(%rax)
		pp->pp_link = NULL;
  8004202ef2:	48 8b 45 f8          	mov    -0x8(%rbp),%rax
  8004202ef6:	48 c7 00 00 00 00 00 	movq   $0x0,(%rax)
		if (alloc_flags & ALLOC_ZERO)
  8004202efd:	8b 45 ec             	mov    -0x14(%rbp),%eax
  8004202f00:	83 e0 01             	and    $0x1,%eax
  8004202f03:	85 c0                	test   %eax,%eax
  8004202f05:	74 2c                	je     8004202f33 <page_alloc+0x81>
			memset(page2kva(pp), 0, PGSIZE);
  8004202f07:	48 8b 45 f8          	mov    -0x8(%rbp),%rax
  8004202f0b:	48 89 c7             	mov    %rax,%rdi
  8004202f0e:	48 b8 d3 1b 20 04 80 	movabs $0x8004201bd3,%rax
  8004202f15:	00 00 00 
  8004202f18:	ff d0                	callq  *%rax
  8004202f1a:	ba 00 10 00 00       	mov    $0x1000,%edx
  8004202f1f:	be 00 00 00 00       	mov    $0x0,%esi
  8004202f24:	48 89 c7             	mov    %rax,%rdi
  8004202f27:	48 b8 b9 11 21 04 80 	movabs $0x80042111b9,%rax
  8004202f2e:	00 00 00 
  8004202f31:	ff d0                	callq  *%rax
	}
	return pp;
  8004202f33:	48 8b 45 f8          	mov    -0x8(%rbp),%rax

}
  8004202f37:	c9                   	leaveq 
  8004202f38:	c3                   	retq   

0000008004202f39 <page_initpp>:
// The result has null links and 0 refcount.
// Note that the corresponding physical page is NOT initialized!
//
static void
page_initpp(struct PageInfo *pp)
{
  8004202f39:	55                   	push   %rbp
  8004202f3a:	48 89 e5             	mov    %rsp,%rbp
  8004202f3d:	48 83 ec 10          	sub    $0x10,%rsp
  8004202f41:	48 89 7d f8          	mov    %rdi,-0x8(%rbp)
	memset(pp, 0, sizeof(*pp));
  8004202f45:	48 8b 45 f8          	mov    -0x8(%rbp),%rax
  8004202f49:	ba 10 00 00 00       	mov    $0x10,%edx
  8004202f4e:	be 00 00 00 00       	mov    $0x0,%esi
  8004202f53:	48 89 c7             	mov    %rax,%rdi
  8004202f56:	48 b8 b9 11 21 04 80 	movabs $0x80042111b9,%rax
  8004202f5d:	00 00 00 
  8004202f60:	ff d0                	callq  *%rax
}
  8004202f62:	90                   	nop
  8004202f63:	c9                   	leaveq 
  8004202f64:	c3                   	retq   

0000008004202f65 <page_free>:
// Return a page to the free list.
// (This function should only be called when pp->pp_ref reaches 0.)
//
void
page_free(struct PageInfo *pp)
{
  8004202f65:	55                   	push   %rbp
  8004202f66:	48 89 e5             	mov    %rsp,%rbp
  8004202f69:	48 83 ec 10          	sub    $0x10,%rsp
  8004202f6d:	48 89 7d f8          	mov    %rdi,-0x8(%rbp)

	if (pp->pp_ref || pp->pp_link) {
  8004202f71:	48 8b 45 f8          	mov    -0x8(%rbp),%rax
  8004202f75:	0f b7 40 08          	movzwl 0x8(%rax),%eax
  8004202f79:	66 85 c0             	test   %ax,%ax
  8004202f7c:	75 0c                	jne    8004202f8a <page_free+0x25>
  8004202f7e:	48 8b 45 f8          	mov    -0x8(%rbp),%rax
  8004202f82:	48 8b 00             	mov    (%rax),%rax
  8004202f85:	48 85 c0             	test   %rax,%rax
  8004202f88:	74 2c                	je     8004202fb6 <page_free+0x51>
		warn("page_free: attempt to free mapped page");
  8004202f8a:	48 ba c8 f5 21 04 80 	movabs $0x800421f5c8,%rdx
  8004202f91:	00 00 00 
  8004202f94:	be 04 02 00 00       	mov    $0x204,%esi
  8004202f99:	48 bf 7e f4 21 04 80 	movabs $0x800421f47e,%rdi
  8004202fa0:	00 00 00 
  8004202fa3:	b8 00 00 00 00       	mov    $0x0,%eax
  8004202fa8:	48 b9 0f 06 20 04 80 	movabs $0x800420060f,%rcx
  8004202faf:	00 00 00 
  8004202fb2:	ff d1                	callq  *%rcx
		return;		/* be conservative and assume page is still used */
  8004202fb4:	eb 2f                	jmp    8004202fe5 <page_free+0x80>
	}
	pp->pp_link = page_free_list;
  8004202fb6:	48 b8 38 02 4e 04 80 	movabs $0x80044e0238,%rax
  8004202fbd:	00 00 00 
  8004202fc0:	48 8b 10             	mov    (%rax),%rdx
  8004202fc3:	48 8b 45 f8          	mov    -0x8(%rbp),%rax
  8004202fc7:	48 89 10             	mov    %rdx,(%rax)
	page_free_list = pp;
  8004202fca:	48 b8 38 02 4e 04 80 	movabs $0x80044e0238,%rax
  8004202fd1:	00 00 00 
  8004202fd4:	48 8b 55 f8          	mov    -0x8(%rbp),%rdx
  8004202fd8:	48 89 10             	mov    %rdx,(%rax)
	pp->pp_ref = 0;
  8004202fdb:	48 8b 45 f8          	mov    -0x8(%rbp),%rax
  8004202fdf:	66 c7 40 08 00 00    	movw   $0x0,0x8(%rax)

}
  8004202fe5:	c9                   	leaveq 
  8004202fe6:	c3                   	retq   

0000008004202fe7 <page_decref>:
// Decrement the reference count on a page,
// freeing it if there are no more refs.
//
void
page_decref(struct PageInfo* pp)
{
  8004202fe7:	55                   	push   %rbp
  8004202fe8:	48 89 e5             	mov    %rsp,%rbp
  8004202feb:	48 83 ec 10          	sub    $0x10,%rsp
  8004202fef:	48 89 7d f8          	mov    %rdi,-0x8(%rbp)
	if (--pp->pp_ref == 0)
  8004202ff3:	48 8b 45 f8          	mov    -0x8(%rbp),%rax
  8004202ff7:	0f b7 40 08          	movzwl 0x8(%rax),%eax
  8004202ffb:	8d 50 ff             	lea    -0x1(%rax),%edx
  8004202ffe:	48 8b 45 f8          	mov    -0x8(%rbp),%rax
  8004203002:	66 89 50 08          	mov    %dx,0x8(%rax)
  8004203006:	48 8b 45 f8          	mov    -0x8(%rbp),%rax
  800420300a:	0f b7 40 08          	movzwl 0x8(%rax),%eax
  800420300e:	66 85 c0             	test   %ax,%ax
  8004203011:	75 13                	jne    8004203026 <page_decref+0x3f>
		page_free(pp);
  8004203013:	48 8b 45 f8          	mov    -0x8(%rbp),%rax
  8004203017:	48 89 c7             	mov    %rax,%rdi
  800420301a:	48 b8 65 2f 20 04 80 	movabs $0x8004202f65,%rax
  8004203021:	00 00 00 
  8004203024:	ff d0                	callq  *%rax
}
  8004203026:	90                   	nop
  8004203027:	c9                   	leaveq 
  8004203028:	c3                   	retq   

0000008004203029 <pml4e_walk>:
// table, page directory,page directory pointer and pml4 entries.
//

pte_t *
pml4e_walk(pml4e_t *pml4e, const void *va, int create)
{
  8004203029:	55                   	push   %rbp
  800420302a:	48 89 e5             	mov    %rsp,%rbp
  800420302d:	53                   	push   %rbx
  800420302e:	48 83 ec 68          	sub    $0x68,%rsp
  8004203032:	48 89 7d a8          	mov    %rdi,-0x58(%rbp)
  8004203036:	48 89 75 a0          	mov    %rsi,-0x60(%rbp)
  800420303a:	89 55 9c             	mov    %edx,-0x64(%rbp)

	if (pml4e) {
  800420303d:	48 83 7d a8 00       	cmpq   $0x0,-0x58(%rbp)
  8004203042:	0f 84 54 02 00 00    	je     800420329c <pml4e_walk+0x273>
		pdpe_t *pdpe  = (pdpe_t *)pml4e [PML4(va)];
  8004203048:	48 8b 45 a0          	mov    -0x60(%rbp),%rax
  800420304c:	48 c1 e8 27          	shr    $0x27,%rax
  8004203050:	25 ff 01 00 00       	and    $0x1ff,%eax
  8004203055:	48 8d 14 c5 00 00 00 	lea    0x0(,%rax,8),%rdx
  800420305c:	00 
  800420305d:	48 8b 45 a8          	mov    -0x58(%rbp),%rax
  8004203061:	48 01 d0             	add    %rdx,%rax
  8004203064:	48 8b 00             	mov    (%rax),%rax
  8004203067:	48 89 45 e8          	mov    %rax,-0x18(%rbp)
		if (!((physaddr_t)pdpe & PTE_P) && create) {
  800420306b:	48 8b 45 e8          	mov    -0x18(%rbp),%rax
  800420306f:	83 e0 01             	and    $0x1,%eax
  8004203072:	48 85 c0             	test   %rax,%rax
  8004203075:	0f 85 82 01 00 00    	jne    80042031fd <pml4e_walk+0x1d4>
  800420307b:	83 7d 9c 00          	cmpl   $0x0,-0x64(%rbp)
  800420307f:	0f 84 78 01 00 00    	je     80042031fd <pml4e_walk+0x1d4>
			struct PageInfo *page   = NULL;
  8004203085:	48 c7 45 e0 00 00 00 	movq   $0x0,-0x20(%rbp)
  800420308c:	00 
			if ((page = page_alloc(ALLOC_ZERO))) {
  800420308d:	bf 01 00 00 00       	mov    $0x1,%edi
  8004203092:	48 b8 b2 2e 20 04 80 	movabs $0x8004202eb2,%rax
  8004203099:	00 00 00 
  800420309c:	ff d0                	callq  *%rax
  800420309e:	48 89 45 e0          	mov    %rax,-0x20(%rbp)
  80042030a2:	48 83 7d e0 00       	cmpq   $0x0,-0x20(%rbp)
  80042030a7:	0f 84 46 01 00 00    	je     80042031f3 <pml4e_walk+0x1ca>
				page->pp_ref    += 1;
  80042030ad:	48 8b 45 e0          	mov    -0x20(%rbp),%rax
  80042030b1:	0f b7 40 08          	movzwl 0x8(%rax),%eax
  80042030b5:	8d 50 01             	lea    0x1(%rax),%edx
